

HI-TECH Software PIC LITE Macro Assembler V9.70 build 5239 
                                                                                               Mon Oct 27 21:57:27 2014

HI-TECH Software Omniscient Code Generator (Lite mode) build 5239
     1  0000                     opt subtitle "HI-TECH Software Omniscient Code Generator (Lite mode) build 5239"
     2                           
     3                           opt pagewidth 120
     4                           
     5                           	opt lm
     6                           
     7                           	processor	16F877A
     8                           clrc	macro
     9                           	bcf	3,0
    10  0000                     	endm
    11                           clrz	macro
    12                           	bcf	3,2
    13  0000                     	endm
    14                           setc	macro
    15                           	bsf	3,0
    16  0000                     	endm
    17                           setz	macro
    18                           	bsf	3,2
    19  0000                     	endm
    20                           skipc	macro
    21                           	btfss	3,0
    22  0000                     	endm
    23                           skipz	macro
    24                           	btfss	3,2
    25  0000                     	endm
    26                           skipnc	macro
    27                           	btfsc	3,0
    28  0000                     	endm
    29                           skipnz	macro
    30                           	btfsc	3,2
    31  0000                     	endm
    32  0000                     indf	equ	0
    33  0000                     indf0	equ	0
    34  0002                     pc	equ	2
    35  0002                     pcl	equ	2
    36  0003                     status	equ	3
    37  0004                     fsr	equ	4
    38  0004                     fsr0	equ	4
    39  0001                     c	equ	1
    40  0000                     z	equ	0
    41  000A                     pclath	equ	10
    42                           # 16 "main.c"
    43                           	psect config,class=CONFIG,delta=2 ;#
    44                           # 16 "main.c"
    45  2007  3F32               	dw 0x3f32 ;#
    46                           ;COMMON:	_main->_SENDData
    47                           ;COMMON:	_SENDData->_odesliData1
    48                           ;BANK0:	_SENDData->_odesliData1
    49                           ;BANK0:	_main->_SENDData
    50                           ;COMMON:	_SENDData->_odesliData1
    51                           ;BANK0:	_SENDData->_odesliData1
    52                           	FNCALL	_main,_BLUETOOTH_INIT
    53                           	FNCALL	_main,_GET_SONAR_DATA
    54                           	FNCALL	_main,_ANALOG_READ
    55                           	FNCALL	_main,_prepareButtons
    56                           	FNCALL	_main,_SENDData
    57                           	FNCALL	_SENDData,_odesliData1
    58                           	FNCALL	_ANALOG_READ,_DELAY_TIMER1_15uS
    59                           	FNCALL	_GET_SONAR_DATA,_DELAY_TIMER1_15uS
    60                           	FNCALL	_GET_SONAR_DATA,_DELAY_TIMER1_50mS
    61                           	FNROOT	_main
    62                           	FNCALL	_isr,_read_data
    63                           	FNCALL	_isr,_BLUETOOTH_RESTART
    64                           	FNCALL	_BLUETOOTH_RESTART,i1_DELAY_TIMER1_15uS
    65                           	FNCALL	_read_data,___wmul
    66                           	FNCALL	_read_data,_LEFT_ENGINE_UPDATE
    67                           	FNCALL	_read_data,_RIGHT_ENGINE_UPDATE
    68                           	FNCALL	_RIGHT_ENGINE_UPDATE,_ENGINE_UPDATE
    69                           	FNCALL	_LEFT_ENGINE_UPDATE,_ENGINE_UPDATE
    70                           	FNCALL	_ENGINE_UPDATE,_STOP_ENGINE
    71                           	FNCALL	_ENGINE_UPDATE,_START_ENGINE
    72                           	FNCALL	intlevel1,_isr
    73                           	global	intlevel1
    74                           	FNROOT	intlevel1
    75                           	global	_L_MOTOR_BACK
    76                           	global	_R_MOTOR_FORW
    77                           psect	idataBANK0,class=CODE,space=0,delta=2
    78                           global __pidataBANK0
    79  045A                     __pidataBANK0:
    80                           	file	"engine_modul.h"
    81                           	line	2
    82                           
    83                           ;initializer for _L_MOTOR_BACK
    84  045A  3401               	retlw	01h
    85                           	line	3
    86                           
    87                           ;initializer for _R_MOTOR_FORW
    88  045B  3401               	retlw	01h
    89                           	global	_OLD_LM_SPEED
    90                           	global	_OLD_RM_SPEED
    91                           	global	_R_MOTOR_BACK
    92                           	global	_UPDATE_COUNT
    93                           	global	_beforeButtonStates
    94                           	global	_beforeButtons
    95                           	global	_init_con
    96                           	global	_L_MOTOR_FORW
    97                           	global	_OLD_LM_DIR
    98                           	global	_OLD_RM_DIR
    99                           	global	_UPDATE_SONAR
   100                           	global	_UPDATE_VOLTMETER
   101                           	global	_currenButtonStates
   102                           	global	_protokol
   103                           	global	_SONAR
   104                           	global	_VOLTAGE
   105                           	global	_VOLTMETER
   106                           	global	_sonar
   107                           	global	_ADCON0
   108  001F                     _ADCON0  equ     31
   109                           	global	_ADRESH
   110  001E                     _ADRESH  equ     30
   111                           	global	_CCP1CON
   112  0017                     _CCP1CON  equ     23
   113                           	global	_CCP2CON
   114  001D                     _CCP2CON  equ     29
   115                           	global	_CCPR1H
   116  0016                     _CCPR1H  equ     22
   117                           	global	_CCPR1L
   118  0015                     _CCPR1L  equ     21
   119                           	global	_CCPR2H
   120  001C                     _CCPR2H  equ     28
   121                           	global	_CCPR2L
   122  001B                     _CCPR2L  equ     27
   123                           	global	_FSR
   124  0004                     _FSR  equ     4
   125                           	global	_INDF
   126  0000                     _INDF  equ     0
   127                           	global	_INTCON
   128  000B                     _INTCON  equ     11
   129                           	global	_PCL
   130  0002                     _PCL  equ     2
   131                           	global	_PCLATH
   132  000A                     _PCLATH  equ     10
   133                           	global	_PIR1
   134  000C                     _PIR1  equ     12
   135                           	global	_PIR2
   136  000D                     _PIR2  equ     13
   137                           	global	_PORTA
   138  0005                     _PORTA  equ     5
   139                           	global	_PORTB
   140  0006                     _PORTB  equ     6
   141                           	global	_PORTC
   142  0007                     _PORTC  equ     7
   143                           	global	_PORTD
   144  0008                     _PORTD  equ     8
   145                           	global	_PORTE
   146  0009                     _PORTE  equ     9
   147                           	global	_RCREG
   148  001A                     _RCREG  equ     26
   149                           	global	_RCSTA
   150  0018                     _RCSTA  equ     24
   151                           	global	_SSPBUF
   152  0013                     _SSPBUF  equ     19
   153                           	global	_SSPCON
   154  0014                     _SSPCON  equ     20
   155                           	global	_STATUS
   156  0003                     _STATUS  equ     3
   157                           	global	_T1CON
   158  0010                     _T1CON  equ     16
   159                           	global	_T2CON
   160  0012                     _T2CON  equ     18
   161                           	global	_TMR0
   162  0001                     _TMR0  equ     1
   163                           	global	_TMR1H
   164  000F                     _TMR1H  equ     15
   165                           	global	_TMR1L
   166  000E                     _TMR1L  equ     14
   167                           	global	_TMR2
   168  0011                     _TMR2  equ     17
   169                           	global	_TXREG
   170  0019                     _TXREG  equ     25
   171                           	global	_ADCS0
   172  00FE                     _ADCS0  equ     254
   173                           	global	_ADCS1
   174  00FF                     _ADCS1  equ     255
   175                           	global	_ADDEN
   176  00C3                     _ADDEN  equ     195
   177                           	global	_ADGO
   178  00FA                     _ADGO  equ     250
   179                           	global	_ADIF
   180  0066                     _ADIF  equ     102
   181                           	global	_ADON
   182  00F8                     _ADON  equ     248
   183                           	global	_BCLIF
   184  006B                     _BCLIF  equ     107
   185                           	global	_CARRY
   186  0018                     _CARRY  equ     24
   187                           	global	_CCP1IF
   188  0062                     _CCP1IF  equ     98
   189                           	global	_CCP1M0
   190  00B8                     _CCP1M0  equ     184
   191                           	global	_CCP1M1
   192  00B9                     _CCP1M1  equ     185
   193                           	global	_CCP1M2
   194  00BA                     _CCP1M2  equ     186
   195                           	global	_CCP1M3
   196  00BB                     _CCP1M3  equ     187
   197                           	global	_CCP1X
   198  00BD                     _CCP1X  equ     189
   199                           	global	_CCP1Y
   200  00BC                     _CCP1Y  equ     188
   201                           	global	_CCP2IF
   202  0068                     _CCP2IF  equ     104
   203                           	global	_CCP2M0
   204  00E8                     _CCP2M0  equ     232
   205                           	global	_CCP2M1
   206  00E9                     _CCP2M1  equ     233
   207                           	global	_CCP2M2
   208  00EA                     _CCP2M2  equ     234
   209                           	global	_CCP2M3
   210  00EB                     _CCP2M3  equ     235
   211                           	global	_CCP2X
   212  00ED                     _CCP2X  equ     237
   213                           	global	_CCP2Y
   214  00EC                     _CCP2Y  equ     236
   215                           	global	_CHS0
   216  00FB                     _CHS0  equ     251
   217                           	global	_CHS1
   218  00FC                     _CHS1  equ     252
   219                           	global	_CHS2
   220  00FD                     _CHS2  equ     253
   221                           	global	_CKP
   222  00A4                     _CKP  equ     164
   223                           	global	_CMIF
   224  006E                     _CMIF  equ     110
   225                           	global	_CREN
   226  00C4                     _CREN  equ     196
   227                           	global	_DC
   228  0019                     _DC  equ     25
   229                           	global	_EEIF
   230  006C                     _EEIF  equ     108
   231                           	global	_FERR
   232  00C2                     _FERR  equ     194
   233                           	global	_GIE
   234  005F                     _GIE  equ     95
   235                           	global	_GODONE
   236  00FA                     _GODONE  equ     250
   237                           	global	_INTE
   238  005C                     _INTE  equ     92
   239                           	global	_INTF
   240  0059                     _INTF  equ     89
   241                           	global	_IRP
   242  001F                     _IRP  equ     31
   243                           	global	_OERR
   244  00C1                     _OERR  equ     193
   245                           	global	_PD
   246  001B                     _PD  equ     27
   247                           	global	_PEIE
   248  005E                     _PEIE  equ     94
   249                           	global	_PSPIF
   250  0067                     _PSPIF  equ     103
   251                           	global	_RA0
   252  0028                     _RA0  equ     40
   253                           	global	_RA1
   254  0029                     _RA1  equ     41
   255                           	global	_RA2
   256  002A                     _RA2  equ     42
   257                           	global	_RA3
   258  002B                     _RA3  equ     43
   259                           	global	_RA4
   260  002C                     _RA4  equ     44
   261                           	global	_RA5
   262  002D                     _RA5  equ     45
   263                           	global	_RB0
   264  0030                     _RB0  equ     48
   265                           	global	_RB1
   266  0031                     _RB1  equ     49
   267                           	global	_RB2
   268  0032                     _RB2  equ     50
   269                           	global	_RB3
   270  0033                     _RB3  equ     51
   271                           	global	_RB4
   272  0034                     _RB4  equ     52
   273                           	global	_RB5
   274  0035                     _RB5  equ     53
   275                           	global	_RB6
   276  0036                     _RB6  equ     54
   277                           	global	_RB7
   278  0037                     _RB7  equ     55
   279                           	global	_RBIE
   280  005B                     _RBIE  equ     91
   281                           	global	_RBIF
   282  0058                     _RBIF  equ     88
   283                           	global	_RC0
   284  0038                     _RC0  equ     56
   285                           	global	_RC1
   286  0039                     _RC1  equ     57
   287                           	global	_RC2
   288  003A                     _RC2  equ     58
   289                           	global	_RC3
   290  003B                     _RC3  equ     59
   291                           	global	_RC4
   292  003C                     _RC4  equ     60
   293                           	global	_RC5
   294  003D                     _RC5  equ     61
   295                           	global	_RC6
   296  003E                     _RC6  equ     62
   297                           	global	_RC7
   298  003F                     _RC7  equ     63
   299                           	global	_RCIF
   300  0065                     _RCIF  equ     101
   301                           	global	_RD0
   302  0040                     _RD0  equ     64
   303                           	global	_RD1
   304  0041                     _RD1  equ     65
   305                           	global	_RD2
   306  0042                     _RD2  equ     66
   307                           	global	_RD3
   308  0043                     _RD3  equ     67
   309                           	global	_RD4
   310  0044                     _RD4  equ     68
   311                           	global	_RD5
   312  0045                     _RD5  equ     69
   313                           	global	_RD6
   314  0046                     _RD6  equ     70
   315                           	global	_RD7
   316  0047                     _RD7  equ     71
   317                           	global	_RE0
   318  0048                     _RE0  equ     72
   319                           	global	_RE1
   320  0049                     _RE1  equ     73
   321                           	global	_RE2
   322  004A                     _RE2  equ     74
   323                           	global	_RP0
   324  001D                     _RP0  equ     29
   325                           	global	_RP1
   326  001E                     _RP1  equ     30
   327                           	global	_RX9
   328  00C6                     _RX9  equ     198
   329                           	global	_RX9D
   330  00C0                     _RX9D  equ     192
   331                           	global	_SPEN
   332  00C7                     _SPEN  equ     199
   333                           	global	_SREN
   334  00C5                     _SREN  equ     197
   335                           	global	_SSPEN
   336  00A5                     _SSPEN  equ     165
   337                           	global	_SSPIF
   338  0063                     _SSPIF  equ     99
   339                           	global	_SSPM0
   340  00A0                     _SSPM0  equ     160
   341                           	global	_SSPM1
   342  00A1                     _SSPM1  equ     161
   343                           	global	_SSPM2
   344  00A2                     _SSPM2  equ     162
   345                           	global	_SSPM3
   346  00A3                     _SSPM3  equ     163
   347                           	global	_SSPOV
   348  00A6                     _SSPOV  equ     166
   349                           	global	_T0IE
   350  005D                     _T0IE  equ     93
   351                           	global	_T0IF
   352  005A                     _T0IF  equ     90
   353                           	global	_T1CKPS0
   354  0084                     _T1CKPS0  equ     132
   355                           	global	_T1CKPS1
   356  0085                     _T1CKPS1  equ     133
   357                           	global	_T1OSCEN
   358  0083                     _T1OSCEN  equ     131
   359                           	global	_T1SYNC
   360  0082                     _T1SYNC  equ     130
   361                           	global	_T2CKPS0
   362  0090                     _T2CKPS0  equ     144
   363                           	global	_T2CKPS1
   364  0091                     _T2CKPS1  equ     145
   365                           	global	_TMR0IE
   366  005D                     _TMR0IE  equ     93
   367                           	global	_TMR0IF
   368  005A                     _TMR0IF  equ     90
   369                           	global	_TMR1CS
   370  0081                     _TMR1CS  equ     129
   371                           	global	_TMR1IF
   372  0060                     _TMR1IF  equ     96
   373                           	global	_TMR1ON
   374  0080                     _TMR1ON  equ     128
   375                           	global	_TMR2IF
   376  0061                     _TMR2IF  equ     97
   377                           	global	_TMR2ON
   378  0092                     _TMR2ON  equ     146
   379                           	global	_TO
   380  001C                     _TO  equ     28
   381                           	global	_TOUTPS0
   382  0093                     _TOUTPS0  equ     147
   383                           	global	_TOUTPS1
   384  0094                     _TOUTPS1  equ     148
   385                           	global	_TOUTPS2
   386  0095                     _TOUTPS2  equ     149
   387                           	global	_TOUTPS3
   388  0096                     _TOUTPS3  equ     150
   389                           	global	_TXIF
   390  0064                     _TXIF  equ     100
   391                           	global	_WCOL
   392  00A7                     _WCOL  equ     167
   393                           	global	_ZERO
   394  001A                     _ZERO  equ     26
   395                           	global	_ADCON1
   396  009F                     _ADCON1  equ     159
   397                           	global	_ADRESL
   398  009E                     _ADRESL  equ     158
   399                           	global	_CMCON
   400  009C                     _CMCON  equ     156
   401                           	global	_CVRCON
   402  009D                     _CVRCON  equ     157
   403                           	global	_OPTION
   404  0081                     _OPTION  equ     129
   405                           	global	_PCON
   406  008E                     _PCON  equ     142
   407                           	global	_PIE1
   408  008C                     _PIE1  equ     140
   409                           	global	_PIE2
   410  008D                     _PIE2  equ     141
   411                           	global	_PR2
   412  0092                     _PR2  equ     146
   413                           	global	_SPBRG
   414  0099                     _SPBRG  equ     153
   415                           	global	_SSPADD
   416  0093                     _SSPADD  equ     147
   417                           	global	_SSPCON2
   418  0091                     _SSPCON2  equ     145
   419                           	global	_SSPSTAT
   420  0094                     _SSPSTAT  equ     148
   421                           	global	_TRISA
   422  0085                     _TRISA  equ     133
   423                           	global	_TRISB
   424  0086                     _TRISB  equ     134
   425                           	global	_TRISC
   426  0087                     _TRISC  equ     135
   427                           	global	_TRISD
   428  0088                     _TRISD  equ     136
   429                           	global	_TRISE
   430  0089                     _TRISE  equ     137
   431                           	global	_TXSTA
   432  0098                     _TXSTA  equ     152
   433                           	global	_ACKDT
   434  048D                     _ACKDT  equ     1165
   435                           	global	_ACKEN
   436  048C                     _ACKEN  equ     1164
   437                           	global	_ACKSTAT
   438  048E                     _ACKSTAT  equ     1166
   439                           	global	_ADCS2
   440  04FE                     _ADCS2  equ     1278
   441                           	global	_ADFM
   442  04FF                     _ADFM  equ     1279
   443                           	global	_ADIE
   444  0466                     _ADIE  equ     1126
   445                           	global	_BCLIE
   446  046B                     _BCLIE  equ     1131
   447                           	global	_BF
   448  04A0                     _BF  equ     1184
   449                           	global	_BOR
   450  0470                     _BOR  equ     1136
   451                           	global	_BRGH
   452  04C2                     _BRGH  equ     1218
   453                           	global	_C1INV
   454  04E4                     _C1INV  equ     1252
   455                           	global	_C1OUT
   456  04E6                     _C1OUT  equ     1254
   457                           	global	_C2INV
   458  04E5                     _C2INV  equ     1253
   459                           	global	_C2OUT
   460  04E7                     _C2OUT  equ     1255
   461                           	global	_CCP1IE
   462  0462                     _CCP1IE  equ     1122
   463                           	global	_CCP2IE
   464  0468                     _CCP2IE  equ     1128
   465                           	global	_CIS
   466  04E3                     _CIS  equ     1251
   467                           	global	_CKE
   468  04A6                     _CKE  equ     1190
   469                           	global	_CM0
   470  04E0                     _CM0  equ     1248
   471                           	global	_CM1
   472  04E1                     _CM1  equ     1249
   473                           	global	_CM2
   474  04E2                     _CM2  equ     1250
   475                           	global	_CMIE
   476  046E                     _CMIE  equ     1134
   477                           	global	_CSRC
   478  04C7                     _CSRC  equ     1223
   479                           	global	_CVR0
   480  04E8                     _CVR0  equ     1256
   481                           	global	_CVR1
   482  04E9                     _CVR1  equ     1257
   483                           	global	_CVR2
   484  04EA                     _CVR2  equ     1258
   485                           	global	_CVR3
   486  04EB                     _CVR3  equ     1259
   487                           	global	_CVREN
   488  04EF                     _CVREN  equ     1263
   489                           	global	_CVROE
   490  04EE                     _CVROE  equ     1262
   491                           	global	_CVRR
   492  04ED                     _CVRR  equ     1261
   493                           	global	_DA
   494  04A5                     _DA  equ     1189
   495                           	global	_EEIE
   496  046C                     _EEIE  equ     1132
   497                           	global	_GCEN
   498  048F                     _GCEN  equ     1167
   499                           	global	_IBF
   500  044F                     _IBF  equ     1103
   501                           	global	_IBOV
   502  044D                     _IBOV  equ     1101
   503                           	global	_INTEDG
   504  040E                     _INTEDG  equ     1038
   505                           	global	_OBF
   506  044E                     _OBF  equ     1102
   507                           	global	_PCFG0
   508  04F8                     _PCFG0  equ     1272
   509                           	global	_PCFG1
   510  04F9                     _PCFG1  equ     1273
   511                           	global	_PCFG2
   512  04FA                     _PCFG2  equ     1274
   513                           	global	_PCFG3
   514  04FB                     _PCFG3  equ     1275
   515                           	global	_PEN
   516  048A                     _PEN  equ     1162
   517                           	global	_POR
   518  0471                     _POR  equ     1137
   519                           	global	_PS0
   520  0408                     _PS0  equ     1032
   521                           	global	_PS1
   522  0409                     _PS1  equ     1033
   523                           	global	_PS2
   524  040A                     _PS2  equ     1034
   525                           	global	_PSA
   526  040B                     _PSA  equ     1035
   527                           	global	_PSPIE
   528  0467                     _PSPIE  equ     1127
   529                           	global	_PSPMODE
   530  044C                     _PSPMODE  equ     1100
   531                           	global	_RBPU
   532  040F                     _RBPU  equ     1039
   533                           	global	_RCEN
   534  048B                     _RCEN  equ     1163
   535                           	global	_RCIE
   536  0465                     _RCIE  equ     1125
   537                           	global	_RSEN
   538  0489                     _RSEN  equ     1161
   539                           	global	_RW
   540  04A2                     _RW  equ     1186
   541                           	global	_SEN
   542  0488                     _SEN  equ     1160
   543                           	global	_SMP
   544  04A7                     _SMP  equ     1191
   545                           	global	_SSPIE
   546  0463                     _SSPIE  equ     1123
   547                           	global	_START
   548  04A3                     _START  equ     1187
   549                           	global	_STOP
   550  04A4                     _STOP  equ     1188
   551                           	global	_SYNC
   552  04C4                     _SYNC  equ     1220
   553                           	global	_T0CS
   554  040D                     _T0CS  equ     1037
   555                           	global	_T0SE
   556  040C                     _T0SE  equ     1036
   557                           	global	_TMR1IE
   558  0460                     _TMR1IE  equ     1120
   559                           	global	_TMR2IE
   560  0461                     _TMR2IE  equ     1121
   561                           	global	_TRISA0
   562  0428                     _TRISA0  equ     1064
   563                           	global	_TRISA1
   564  0429                     _TRISA1  equ     1065
   565                           	global	_TRISA2
   566  042A                     _TRISA2  equ     1066
   567                           	global	_TRISA3
   568  042B                     _TRISA3  equ     1067
   569                           	global	_TRISA4
   570  042C                     _TRISA4  equ     1068
   571                           	global	_TRISA5
   572  042D                     _TRISA5  equ     1069
   573                           	global	_TRISB0
   574  0430                     _TRISB0  equ     1072
   575                           	global	_TRISB1
   576  0431                     _TRISB1  equ     1073
   577                           	global	_TRISB2
   578  0432                     _TRISB2  equ     1074
   579                           	global	_TRISB3
   580  0433                     _TRISB3  equ     1075
   581                           	global	_TRISB4
   582  0434                     _TRISB4  equ     1076
   583                           	global	_TRISB5
   584  0435                     _TRISB5  equ     1077
   585                           	global	_TRISB6
   586  0436                     _TRISB6  equ     1078
   587                           	global	_TRISB7
   588  0437                     _TRISB7  equ     1079
   589                           	global	_TRISC0
   590  0438                     _TRISC0  equ     1080
   591                           	global	_TRISC1
   592  0439                     _TRISC1  equ     1081
   593                           	global	_TRISC2
   594  043A                     _TRISC2  equ     1082
   595                           	global	_TRISC3
   596  043B                     _TRISC3  equ     1083
   597                           	global	_TRISC4
   598  043C                     _TRISC4  equ     1084
   599                           	global	_TRISC5
   600  043D                     _TRISC5  equ     1085
   601                           	global	_TRISC6
   602  043E                     _TRISC6  equ     1086
   603                           	global	_TRISC7
   604  043F                     _TRISC7  equ     1087
   605                           	global	_TRISD0
   606  0440                     _TRISD0  equ     1088
   607                           	global	_TRISD1
   608  0441                     _TRISD1  equ     1089
   609                           	global	_TRISD2
   610  0442                     _TRISD2  equ     1090
   611                           	global	_TRISD3
   612  0443                     _TRISD3  equ     1091
   613                           	global	_TRISD4
   614  0444                     _TRISD4  equ     1092
   615                           	global	_TRISD5
   616  0445                     _TRISD5  equ     1093
   617                           	global	_TRISD6
   618  0446                     _TRISD6  equ     1094
   619                           	global	_TRISD7
   620  0447                     _TRISD7  equ     1095
   621                           	global	_TRISE0
   622  0448                     _TRISE0  equ     1096
   623                           	global	_TRISE1
   624  0449                     _TRISE1  equ     1097
   625                           	global	_TRISE2
   626  044A                     _TRISE2  equ     1098
   627                           	global	_TRMT
   628  04C1                     _TRMT  equ     1217
   629                           	global	_TX9
   630  04C6                     _TX9  equ     1222
   631                           	global	_TX9D
   632  04C0                     _TX9D  equ     1216
   633                           	global	_TXEN
   634  04C5                     _TXEN  equ     1221
   635                           	global	_TXIE
   636  0464                     _TXIE  equ     1124
   637                           	global	_UA
   638  04A1                     _UA  equ     1185
   639                           	global	_EEADR
   640  010D                     _EEADR  equ     269
   641                           	global	_EEADRH
   642  010F                     _EEADRH  equ     271
   643                           	global	_EEADRL
   644  010D                     _EEADRL  equ     269
   645                           	global	_EEDATA
   646  010C                     _EEDATA  equ     268
   647                           	global	_EEDATH
   648  010E                     _EEDATH  equ     270
   649                           	global	_EECON1
   650  018C                     _EECON1  equ     396
   651                           	global	_EECON2
   652  018D                     _EECON2  equ     397
   653                           	global	_EEPGD
   654  0C67                     _EEPGD  equ     3175
   655                           	global	_RD
   656  0C60                     _RD  equ     3168
   657                           	global	_WR
   658  0C61                     _WR  equ     3169
   659                           	global	_WREN
   660  0C62                     _WREN  equ     3170
   661                           	global	_WRERR
   662  0C63                     _WRERR  equ     3171
   663                           	file	"C:\Users\DEli\AppData\Local\Temp\s70c."
   664                           	line	#
   665                           psect cinit,class=CODE,delta=2
   666                           global start_initialization
   667  03AA                     start_initialization:
   668                           
   669                           psect	bssCOMMON,class=COMMON,space=1
   670                           global __pbssCOMMON
   671  0070                     __pbssCOMMON:
   672  0070                     _L_MOTOR_FORW:
   673  0070                            ds      1
   674                           
   675  0071                     _OLD_LM_DIR:
   676  0071                            ds      1
   677                           
   678  0072                     _OLD_RM_DIR:
   679  0072                            ds      1
   680                           
   681  0073                     _UPDATE_SONAR:
   682  0073                            ds      1
   683                           
   684  0074                     _UPDATE_VOLTMETER:
   685  0074                            ds      1
   686                           
   687  0075                     _currenButtonStates:
   688  0075                            ds      1
   689                           
   690                           psect	bssBANK0,class=BANK0,space=1
   691                           global __pbssBANK0
   692  003F                     __pbssBANK0:
   693  003F                     _OLD_LM_SPEED:
   694  003F                            ds      2
   695                           
   696  0041                     _OLD_RM_SPEED:
   697  0041                            ds      2
   698                           
   699  0043                     _R_MOTOR_BACK:
   700  0043                            ds      1
   701                           
   702  0044                     _UPDATE_COUNT:
   703  0044                            ds      1
   704                           
   705  0045                     _beforeButtonStates:
   706  0045                            ds      1
   707                           
   708  0046                     _beforeButtons:
   709  0046                            ds      1
   710                           
   711  0047                     _init_con:
   712  0047                            ds      1
   713                           
   714  0048                     _protokol:
   715  0048                            ds      5
   716                           
   717  004D                     _SONAR:
   718  004D                            ds      2
   719                           
   720  004F                     _VOLTAGE:
   721  004F                            ds      2
   722                           
   723  0051                     _VOLTMETER:
   724  0051                            ds      2
   725                           
   726  0053                     _sonar:
   727  0053                            ds      2
   728                           
   729                           psect	dataBANK0,class=BANK0,space=1
   730                           global __pdataBANK0
   731  0055                     __pdataBANK0:
   732                           	file	"engine_modul.h"
   733                           	line	2
   734  0055                     _L_MOTOR_BACK:
   735  0055                            ds      1
   736                           
   737                           psect	dataBANK0
   738                           	file	"engine_modul.h"
   739                           	line	3
   740  0056                     _R_MOTOR_FORW:
   741  0056                            ds      1
   742                           
   743                           psect clrtext,class=CODE,delta=2
   744                           global clear_ram
   745                           ;	Called with FSR containing the base address, and
   746                           ;	W with the last address+1
   747  0452                     clear_ram:
   748  0452  0064               	clrwdt			;clear the watchdog before getting into this loop
   749  0453                     clrloop:
   750  0453  0180               	clrf	indf		;clear RAM location pointed to by FSR
   751  0454  0A84               	incf	fsr,f		;increment pointer
   752  0455  0604               	xorwf	fsr,w		;XOR with final address
   753  0456  1903               	btfsc	status,2	;have we reached the end yet?
   754  0457  3400               	retlw	0		;all done for this memory range, return
   755  0458  0604               	xorwf	fsr,w		;XOR again to restore value
   756  0459  2C53               	goto	clrloop		;do the next byte
   757                           
   758                           ; Clear objects allocated to COMMON
   759                           psect cinit,class=CODE,delta=2
   760  03AA  01F0               	clrf	((__pbssCOMMON)+0)&07Fh
   761  03AB  01F1               	clrf	((__pbssCOMMON)+1)&07Fh
   762  03AC  01F2               	clrf	((__pbssCOMMON)+2)&07Fh
   763  03AD  01F3               	clrf	((__pbssCOMMON)+3)&07Fh
   764  03AE  01F4               	clrf	((__pbssCOMMON)+4)&07Fh
   765  03AF  01F5               	clrf	((__pbssCOMMON)+5)&07Fh
   766                           ; Clear objects allocated to BANK0
   767                           psect cinit,class=CODE,delta=2
   768  03B0  1383               	bcf	status, 7	;select IRP bank0
   769  03B1  303F               	movlw	low(__pbssBANK0)
   770  03B2  0084               	movwf	fsr
   771  03B3  3055               	movlw	low((__pbssBANK0)+016h)
   772  03B4  120A  118A  2452   	fcall	clear_ram
              120A  118A         
   773                           ; Initialize objects allocated to BANK0
   774                           	global __pidataBANK0
   775                           psect cinit,class=CODE,delta=2
   776  03B9  120A  118A  245A   	fcall	__pidataBANK0+0		;fetch initializer
              120A  118A         
   777  03BE  00D5               	movwf	__pdataBANK0+0&07fh		
   778  03BF  120A  118A  245B   	fcall	__pidataBANK0+1		;fetch initializer
              120A  118A         
   779  03C4  00D6               	movwf	__pdataBANK0+1&07fh		
   780                           psect cinit,class=CODE,delta=2
   781                           global end_of_initialization
   782                           
   783                           ;End of C runtime variable initationation code
   784                           
   785  03C5                     end_of_initialization:
   786  03C5  0183               clrf status
   787  03C6  120A  118A  2933   ljmp _main	;jump to C main() function
   788                           psect	cstackBANK1,class=BANK1,space=1
   789                           global __pcstackBANK1
   790  00A0                     __pcstackBANK1:
   791                           	global	?_RIGHT_ENGINE_UPDATE
   792  00A0                     ?_RIGHT_ENGINE_UPDATE: ;@ 0x0
   793                           	global	?_LEFT_ENGINE_UPDATE
   794  00A0                     ?_LEFT_ENGINE_UPDATE: ;@ 0x0
   795                           	global	RIGHT_ENGINE_UPDATE@speed
   796  00A0                     RIGHT_ENGINE_UPDATE@speed:	; 2 bytes @ 0x0
   797                           	global	LEFT_ENGINE_UPDATE@speed
   798  00A0                     LEFT_ENGINE_UPDATE@speed:	; 2 bytes @ 0x0
   799  00A0                     	ds	2
   800                           	global	LEFT_ENGINE_UPDATE@dir
   801  00A2                     LEFT_ENGINE_UPDATE@dir:	; 1 bytes @ 0x2
   802                           	global	RIGHT_ENGINE_UPDATE@dir
   803  00A2                     RIGHT_ENGINE_UPDATE@dir:	; 1 bytes @ 0x2
   804  00A2                     	ds	1
   805                           	global	read_data@speed
   806  00A3                     read_data@speed:	; 2 bytes @ 0x3
   807  00A3                     	ds	2
   808                           	global	read_data@speed_1798
   809  00A5                     read_data@speed_1798:	; 2 bytes @ 0x5
   810  00A5                     	ds	2
   811                           	global	read_data@dir_1796
   812  00A7                     read_data@dir_1796:	; 1 bytes @ 0x7
   813  00A7                     	ds	1
   814                           	global	read_data@dir
   815  00A8                     read_data@dir:	; 1 bytes @ 0x8
   816  00A8                     	ds	1
   817                           	global	_read_data$1797
   818  00A9                     _read_data$1797:	; 2 bytes @ 0x9
   819  00A9                     	ds	2
   820                           	global	_read_data$1794
   821  00AB                     _read_data$1794:	; 2 bytes @ 0xB
   822  00AB                     	ds	2
   823                           	global	read_data@prijata_data
   824  00AD                     read_data@prijata_data:	; 1 bytes @ 0xD
   825  00AD                     	ds	2
   826                           	global	isr@prijata_data
   827  00AF                     isr@prijata_data:	; 1 bytes @ 0xF
   828  00AF                     	ds	1
   829                           psect	cstackCOMMON,class=COMMON,space=1
   830                           global __pcstackCOMMON
   831  0076                     __pcstackCOMMON:
   832                           	global	??_GET_SONAR_DATA
   833  0076                     ??_GET_SONAR_DATA: ;@ 0x0
   834                           	global	??_DELAY_TIMER1_50mS
   835  0076                     ??_DELAY_TIMER1_50mS: ;@ 0x0
   836                           	global	??_DELAY_TIMER1_15uS
   837  0076                     ??_DELAY_TIMER1_15uS: ;@ 0x0
   838                           	global	??_odesliData1
   839  0076                     ??_odesliData1: ;@ 0x0
   840                           	global	??_BLUETOOTH_INIT
   841  0076                     ??_BLUETOOTH_INIT: ;@ 0x0
   842                           	global	??_prepareButtons
   843  0076                     ??_prepareButtons: ;@ 0x0
   844                           	global	??_ANALOG_READ
   845  0076                     ??_ANALOG_READ: ;@ 0x0
   846  0076                     	ds	1
   847                           	global	??_SENDData
   848  0077                     ??_SENDData: ;@ 0x1
   849  0077                     	ds	1
   850                           	global	??_main
   851  0078                     ??_main: ;@ 0x2
   852  0078                     	ds	4
   853                           psect	cstackBANK0,class=BANK0,space=1
   854                           global __pcstackBANK0
   855  0020                     __pcstackBANK0:
   856                           	global	?_DELAY_TIMER1_15uS
   857  0020                     ?_DELAY_TIMER1_15uS: ;@ 0x0
   858                           	global	?_DELAY_TIMER1_50mS
   859  0020                     ?_DELAY_TIMER1_50mS: ;@ 0x0
   860                           	global	?_BLUETOOTH_INIT
   861  0020                     ?_BLUETOOTH_INIT: ;@ 0x0
   862                           	global	?_GET_SONAR_DATA
   863  0020                     ?_GET_SONAR_DATA: ;@ 0x0
   864                           	global	?_ANALOG_READ
   865  0020                     ?_ANALOG_READ: ;@ 0x0
   866                           	global	odesliData1@pole
   867  0020                     odesliData1@pole:	; 1 bytes @ 0x0
   868                           	global	prepareButtons@BTL
   869  0020                     prepareButtons@BTL:	; 1 bytes @ 0x0
   870  0020                     	ds	1
   871                           	global	?_prepareButtons
   872  0021                     ?_prepareButtons: ;@ 0x1
   873                           	global	prepareButtons@BTR
   874  0021                     prepareButtons@BTR:	; 1 bytes @ 0x1
   875                           	global	odesliData1@index
   876  0021                     odesliData1@index:	; 2 bytes @ 0x1
   877  0021                     	ds	2
   878                           	global	?_odesliData1
   879  0023                     ?_odesliData1: ;@ 0x3
   880                           	global	odesliData1@delkaPole
   881  0023                     odesliData1@delkaPole:	; 1 bytes @ 0x3
   882  0023                     	ds	1
   883                           	global	SENDData@UPDATE_SONAR
   884  0024                     SENDData@UPDATE_SONAR:	; 1 bytes @ 0x4
   885  0024                     	ds	1
   886                           	global	?_SENDData
   887  0025                     ?_SENDData: ;@ 0x5
   888                           	global	SENDData@SONO
   889  0025                     SENDData@SONO:	; 1 bytes @ 0x5
   890  0025                     	ds	1
   891                           	global	SENDData@UPDATE_VOLTMETER
   892  0026                     SENDData@UPDATE_VOLTMETER:	; 1 bytes @ 0x6
   893  0026                     	ds	1
   894                           	global	SENDData@VOLT
   895  0027                     SENDData@VOLT:	; 1 bytes @ 0x7
   896  0027                     	ds	1
   897                           	global	SENDData@UPDATE_BUTTONS
   898  0028                     SENDData@UPDATE_BUTTONS:	; 1 bytes @ 0x8
   899  0028                     	ds	1
   900                           	global	SENDData@BTSValue
   901  0029                     SENDData@BTSValue:	; 1 bytes @ 0x9
   902  0029                     	ds	1
   903                           	global	?_main
   904  002A                     ?_main: ;@ 0xA
   905                           	global	main@argc
   906  002A                     main@argc:	; 2 bytes @ 0xA
   907  002A                     	ds	2
   908                           	global	main@argv
   909  002C                     main@argv:	; 2 bytes @ 0xC
   910  002C                     	ds	2
   911                           	global	??___wmul
   912  002E                     ??___wmul: ;@ 0xE
   913                           	global	?_START_ENGINE
   914  002E                     ?_START_ENGINE: ;@ 0xE
   915                           	global	??_ENGINE_UPDATE
   916  002E                     ??_ENGINE_UPDATE: ;@ 0xE
   917                           	global	??_START_ENGINE
   918  002E                     ??_START_ENGINE: ;@ 0xE
   919                           	global	??_STOP_ENGINE
   920  002E                     ??_STOP_ENGINE: ;@ 0xE
   921                           	global	?_STOP_ENGINE
   922  002E                     ?_STOP_ENGINE: ;@ 0xE
   923                           	global	??i1_DELAY_TIMER1_15uS
   924  002E                     ??i1_DELAY_TIMER1_15uS: ;@ 0xE
   925                           	global	?i1_DELAY_TIMER1_15uS
   926  002E                     ?i1_DELAY_TIMER1_15uS: ;@ 0xE
   927                           	global	??_BLUETOOTH_RESTART
   928  002E                     ??_BLUETOOTH_RESTART: ;@ 0xE
   929                           	global	?_BLUETOOTH_RESTART
   930  002E                     ?_BLUETOOTH_RESTART: ;@ 0xE
   931                           	global	___wmul@product
   932  002E                     ___wmul@product:	; 2 bytes @ 0xE
   933  002E                     	ds	2
   934                           	global	?_ENGINE_UPDATE
   935  0030                     ?_ENGINE_UPDATE: ;@ 0x10
   936                           	global	?___wmul
   937  0030                     ?___wmul: ;@ 0x10
   938                           	global	ENGINE_UPDATE@LM_speed
   939  0030                     ENGINE_UPDATE@LM_speed:	; 2 bytes @ 0x10
   940                           	global	___wmul@multiplier
   941  0030                     ___wmul@multiplier:	; 2 bytes @ 0x10
   942  0030                     	ds	2
   943                           	global	ENGINE_UPDATE@LM_dir
   944  0032                     ENGINE_UPDATE@LM_dir:	; 1 bytes @ 0x12
   945                           	global	___wmul@multiplicand
   946  0032                     ___wmul@multiplicand:	; 2 bytes @ 0x12
   947  0032                     	ds	1
   948                           	global	ENGINE_UPDATE@RM_speed
   949  0033                     ENGINE_UPDATE@RM_speed:	; 2 bytes @ 0x13
   950  0033                     	ds	2
   951                           	global	ENGINE_UPDATE@RM_dir
   952  0035                     ENGINE_UPDATE@RM_dir:	; 1 bytes @ 0x15
   953  0035                     	ds	1
   954                           	global	??_RIGHT_ENGINE_UPDATE
   955  0036                     ??_RIGHT_ENGINE_UPDATE: ;@ 0x16
   956                           	global	??_LEFT_ENGINE_UPDATE
   957  0036                     ??_LEFT_ENGINE_UPDATE: ;@ 0x16
   958  0036                     	ds	2
   959                           	global	??_read_data
   960  0038                     ??_read_data: ;@ 0x18
   961  0038                     	ds	3
   962                           	global	??_isr
   963  003B                     ??_isr: ;@ 0x1B
   964                           	global	?_read_data
   965  003B                     ?_read_data: ;@ 0x1B
   966  003B                     	ds	4
   967                           	global	?_isr
   968  003F                     ?_isr: ;@ 0x1F
   969                           ;Data sizes: Strings 0, constant 0, data 2, bss 28, persistent 0 stack 0
   970                           ;Auto spaces:   Size  Autos    Used
   971                           ; COMMON          14      6      12
   972                           ; BANK0           80     31      55
   973                           ; BANK1           80     16      16
   974                           ; BANK3           96      0       0
   975                           ; BANK2           96      0       0
   976                           
   977                           
   978                           ;Pointer list with targets:
   979                           
   980                           ;sp__GET_SONAR_DATA	PTR struct sonarModul size(1); Largest target is 2
   981                           ;		 -> sonar(BANK0[2]), 
   982                           ;sp__ANALOG_READ	PTR struct anModul size(1); Largest target is 2
   983                           ;		 -> VOLTAGE(BANK0[2]), 
   984                           ;SENDData@SONO	PTR struct sonarModul size(1); Largest target is 2
   985                           ;		 -> SONAR(BANK0[2]), 
   986                           ;SENDData@VOLT	PTR struct anModul size(1); Largest target is 2
   987                           ;		 -> VOLTMETER(BANK0[2]), 
   988                           ;odesliData1@pole	PTR unsigned char  size(1); Largest target is 5
   989                           ;		 -> protokol(BANK0[5]), 
   990                           ;?_ANALOG_READ	PTR struct anModul size(1); Largest target is 2
   991                           ;		 -> VOLTAGE(BANK0[2]), 
   992                           ;?_GET_SONAR_DATA	PTR struct sonarModul size(1); Largest target is 2
   993                           ;		 -> sonar(BANK0[2]), 
   994                           ;?___wmul	unsigned int  size(1); Largest target is 0
   995                           
   996                           
   997                           ;Main: autosize = 0, tempsize = 4, incstack = 0, save=0
   998                           
   999                           
  1000                           ;Call graph:                      Base Space Used Autos Args Refs Density
  1001                           ;_main                                                4    4  396   0.00
  1002                           ;                                    2 COMMO    4
  1003                           ;                                   10 BANK0    4
  1004                           ;     _BLUETOOTH_INIT
  1005                           ;     _GET_SONAR_DATA
  1006                           ;        _ANALOG_READ
  1007                           ;     _prepareButtons
  1008                           ;           _SENDData
  1009                           ;  _SENDData                                          2    5  348   0.00
  1010                           ;                                    1 COMMO    1
  1011                           ;                                    4 BANK0    6
  1012                           ;        _odesliData1
  1013                           ;  _ANALOG_READ                                       1    0    0   0.00
  1014                           ;                                    0 COMMO    1
  1015                           ;  _DELAY_TIMER1_15uS
  1016                           ;  _prepareButtons                                    2    1   48   0.00
  1017                           ;                                    0 COMMO    1
  1018                           ;                                    0 BANK0    2
  1019                           ;  _BLUETOOTH_INIT                                    0    0    0   0.00
  1020                           ;  _GET_SONAR_DATA                                    1    0    0   0.00
  1021                           ;                                    0 COMMO    1
  1022                           ;  _DELAY_TIMER1_15uS
  1023                           ;  _DELAY_TIMER1_50mS
  1024                           ;    _odesliData1                                     4    1  156   0.00
  1025                           ;                                    0 COMMO    1
  1026                           ;                                    0 BANK0    4
  1027                           ;    _DELAY_TIMER1_15uS                               0    0    0   0.00
  1028                           ;    _DELAY_TIMER1_50mS                               0    0    0   0.00
  1029                           ; Estimated maximum call depth 2
  1030                           ;_isr                                                 6    0  954   0.00
  1031                           ;                                   27 BANK0    4
  1032                           ;                                   14 BANK1    2
  1033                           ;          _read_data
  1034                           ;  _BLUETOOTH_RESTART
  1035                           ;  _BLUETOOTH_RESTART                                 0    0    0   0.00
  1036                           ;i1_DELAY_TIMER1_15uS
  1037                           ;  _read_data                                        14    0  924   0.00
  1038                           ;                                   24 BANK0    3
  1039                           ;                                    3 BANK1   11
  1040                           ;             ___wmul
  1041                           ; _LEFT_ENGINE_UPDATE
  1042                           ;_RIGHT_ENGINE_UPDATE
  1043                           ;    _RIGHT_ENGINE_UPDATE                             2    3  192   0.00
  1044                           ;                                   22 BANK0    2
  1045                           ;                                    0 BANK1    3
  1046                           ;      _ENGINE_UPDATE
  1047                           ;    i1_DELAY_TIMER1_15uS                             0    0    0   0.00
  1048                           ;    ___wmul                                          2    4  108   0.00
  1049                           ;                                   14 BANK0    6
  1050                           ;    _LEFT_ENGINE_UPDATE                              2    3  192   0.00
  1051                           ;                                   22 BANK0    2
  1052                           ;                                    0 BANK1    3
  1053                           ;      _ENGINE_UPDATE
  1054                           ;      _ENGINE_UPDATE                                 2    6  144   0.00
  1055                           ;                                   14 BANK0    8
  1056                           ;        _STOP_ENGINE
  1057                           ;       _START_ENGINE
  1058                           ;        _STOP_ENGINE                                 0    0    0   0.00
  1059                           ;        _START_ENGINE                                0    0    0   0.00
  1060                           ; Estimated maximum call depth 4
  1061                           ; Address spaces:
  1062                           
  1063                           ;Name               Size   Autos  Total    Cost      Usage
  1064                           ;BITCOMMON            E      0       0       0        0.0%
  1065                           ;CODE                 0      0       0       0        0.0%
  1066                           ;NULL                 0      0       0       0        0.0%
  1067                           ;COMMON               E      6       C       1       85.7%
  1068                           ;SFR0                 0      0       0       1        0.0%
  1069                           ;BITSFR0              0      0       0       1        0.0%
  1070                           ;BITSFR1              0      0       0       2        0.0%
  1071                           ;SFR1                 0      0       0       2        0.0%
  1072                           ;ABS                  0      0      53       2        0.0%
  1073                           ;STACK                0      0       0       3        0.0%
  1074                           ;BITBANK0            50      0       0       4        0.0%
  1075                           ;SFR3                 0      0       0       4        0.0%
  1076                           ;BITSFR3              0      0       0       4        0.0%
  1077                           ;BANK0               50     1F      37       5       68.8%
  1078                           ;BITSFR2              0      0       0       5        0.0%
  1079                           ;SFR2                 0      0       0       5        0.0%
  1080                           ;BITBANK1            50      0       0       6        0.0%
  1081                           ;BANK1               50     10      10       7       20.0%
  1082                           ;BITBANK3            60      0       0       8        0.0%
  1083                           ;BANK3               60      0       0       9        0.0%
  1084                           ;BITBANK2            60      0       0      10        0.0%
  1085                           ;BANK2               60      0       0      11        0.0%
  1086                           ;DATA                 0      0      53      12        0.0%
  1087                           ;EEDATA             100      0       0    1000        0.0%
  1088                           
  1089                           	global	_main
  1090                           psect	maintext,local,class=CODE,delta=2
  1091                           global __pmaintext
  1092  0133                     __pmaintext:
  1093                           
  1094                           ; *************** function _main *****************
  1095                           ; Defined at:
  1096                           ;		line 88 in file "main.c"
  1097                           ; Parameters:    Size  Location     Type
  1098                           ;  argc            2   10[BANK0 ] int 
  1099                           ;  argv            2   12[BANK0 ] PTR PTR unsigned char 
  1100                           ; Auto vars:     Size  Location     Type
  1101                           ;		None
  1102                           ; Return value:  Size  Location     Type
  1103                           ;                  2   10[BANK0 ] int 
  1104                           ; Registers used:
  1105                           ;		wreg, fsr0l, fsr0h, status,2, status,0, pclath, cstack
  1106                           ; Tracked objects:
  1107                           ;		On entry : 17F/0
  1108                           ;		On exit  : 0/0
  1109                           ;		Unchanged: 0/0
  1110                           ; Data sizes:     COMMON   BANK0   BANK1   BANK3   BANK2
  1111                           ;      Locals:         4       4       0       0       0
  1112                           ;      Temp:     4
  1113                           ;      Total:    8
  1114                           ; This function calls:
  1115                           ;		_BLUETOOTH_INIT
  1116                           ;		_GET_SONAR_DATA
  1117                           ;		_ANALOG_READ
  1118                           ;		_prepareButtons
  1119                           ;		_SENDData
  1120                           ; This function is called by:
  1121                           ;		Startup code after reset
  1122                           ; This function uses a non-reentrant model
  1123                           ; 
  1124                           psect	maintext
  1125                           	file	"main.c"
  1126                           	line	88
  1127                           	global	__size_of_main
  1128  0076                     	__size_of_main	equ	__end_of_main-_main
  1129                           ;main.c: 88: int main(int argc, char** argv) {
  1130                           	
  1131  0133                     _main:	
  1132                           	opt stack 3
  1133                           ; Regs used in _main: [wreg-fsr0h+status,2+status,0+pclath+cstack]
  1134                           	line	90
  1135                           	
  1136  0133                     l30002369:	
  1137                           ;main.c: 90: TRISD7 = 1;
  1138  0133  1683               	bsf	status, 5	;RP0=1, select bank1
  1139  0134  1303               	bcf	status, 6	;RP1=0, select bank1
  1140  0135  1788               	bsf	(1095/8)^080h,(1095)&7
  1141                           	line	91
  1142                           ;main.c: 91: TRISD6 = 1;
  1143  0136  1708               	bsf	(1094/8)^080h,(1094)&7
  1144                           	line	93
  1145                           ;main.c: 93: TRISD4 = 0;
  1146  0137  1208               	bcf	(1092/8)^080h,(1092)&7
  1147                           	line	94
  1148                           ;main.c: 94: RD4 = 1;
  1149  0138  1283               	bcf	status, 5	;RP0=0, select bank0
  1150  0139  1303               	bcf	status, 6	;RP1=0, select bank0
  1151  013A  1608               	bsf	(68/8),(68)&7
  1152                           	
  1153  013B                     l30002370:	
  1154                           	line	96
  1155                           ;main.c: 96: BLUETOOTH_INIT();
  1156  013B  120A  118A  23C9   	fcall	_BLUETOOTH_INIT
              120A  118A         
  1157                           	
  1158  0140                     l30002371:	
  1159                           	line	106
  1160                           ;main.c: 106: if(UPDATE_SONAR){SONAR = *GET_SONAR_DATA();}
  1161  0140  0873               	movf	(_UPDATE_SONAR),w
  1162  0141  1D03               	skipz
  1163  0142  2944               	goto	u960
  1164  0143  2952               	goto	l30002373
  1165  0144                     u960:
  1166                           	
  1167  0144                     l30002372:	
  1168  0144  120A  118A  2251   	fcall	_GET_SONAR_DATA
              120A  118A         
  1169  0149  0084               	movwf	fsr0
  1170  014A  1383               	bcf	status, 7	;select IRP bank0
  1171  014B  0800               	movf	indf,w
  1172  014C  1283               	bcf	status, 5	;RP0=0, select bank0
  1173  014D  1303               	bcf	status, 6	;RP1=0, select bank0
  1174  014E  00CD               	movwf	(_SONAR)
  1175  014F  0A84               	incf	fsr0,f
  1176  0150  0800               	movf	indf,w
  1177  0151  00CE               	movwf	(_SONAR+1)
  1178                           	
  1179  0152                     l30002373:	
  1180                           	line	107
  1181                           ;main.c: 107: if(UPDATE_VOLTMETER){VOLTMETER = *ANALOG_READ();}
  1182  0152  0874               	movf	(_UPDATE_VOLTMETER),w
  1183  0153  1D03               	skipz
  1184  0154  2956               	goto	u970
  1185  0155  2964               	goto	l30002375
  1186  0156                     u970:
  1187                           	
  1188  0156                     l30002374:	
  1189  0156  120A  118A  2386   	fcall	_ANALOG_READ
              120A  118A         
  1190  015B  0084               	movwf	fsr0
  1191  015C  1383               	bcf	status, 7	;select IRP bank0
  1192  015D  0800               	movf	indf,w
  1193  015E  1283               	bcf	status, 5	;RP0=0, select bank0
  1194  015F  1303               	bcf	status, 6	;RP1=0, select bank0
  1195  0160  00D1               	movwf	(_VOLTMETER)
  1196  0161  0A84               	incf	fsr0,f
  1197  0162  0800               	movf	indf,w
  1198  0163  00D2               	movwf	(_VOLTMETER+1)
  1199                           	
  1200  0164                     l30002375:	
  1201                           	line	108
  1202                           ;main.c: 108: currenButtonStates = prepareButtons(!RD7, !RD6);
  1203  0164  1003               	clrc
  1204  0165  1283               	bcf	status, 5	;RP0=0, select bank0
  1205  0166  1303               	bcf	status, 6	;RP1=0, select bank0
  1206  0167  1F08               	btfss	(70/8),(70)&7
  1207  0168  1403               	setc
  1208  0169  3000               	movlw	0
  1209  016A  1803               	skipnc
  1210  016B  3001               	movlw	1
  1211                           
  1212  016C  00A1               	movwf	(?_prepareButtons)
  1213  016D  1003               	clrc
  1214  016E  1F88               	btfss	(71/8),(71)&7
  1215  016F  1403               	setc
  1216  0170  3000               	movlw	0
  1217  0171  1803               	skipnc
  1218  0172  3001               	movlw	1
  1219                           
  1220  0173  120A  118A  240C   	fcall	_prepareButtons
              120A  118A         
  1221  0178  00F5               	movwf	(_currenButtonStates)
  1222                           	
  1223  0179                     l30002376:	
  1224                           	line	119
  1225                           ;main.c: 117: SENDData(UPDATE_SONAR, &SONAR,
  1226                           ;main.c: 118: UPDATE_VOLTMETER, &VOLTMETER,
  1227                           ;main.c: 119: beforeButtonStates != currenButtonStates, currenButtonStates);
  1228  0179  0874               	movf	(_UPDATE_VOLTMETER),w
  1229  017A  00F8               	movwf	(??_main+0+0)
  1230  017B  0878               	movf	(??_main+0+0),w
  1231  017C  1283               	bcf	status, 5	;RP0=0, select bank0
  1232  017D  1303               	bcf	status, 6	;RP1=0, select bank0
  1233  017E  00A6               	movwf	0+(?_SENDData)+01h
  1234  017F  304D               	movlw	((_SONAR))&0ffh
  1235  0180  00A5               	movwf	(?_SENDData)
  1236  0181  3051               	movlw	((_VOLTMETER))&0ffh
  1237  0182  00F9               	movwf	(??_main+1+0)
  1238  0183  0879               	movf	(??_main+1+0),w
  1239  0184  00A7               	movwf	(0+(?_SENDData)+02h)
  1240  0185  0875               	movf	(_currenButtonStates),w
  1241  0186  00FA               	movwf	(??_main+2+0)
  1242  0187  087A               	movf	(??_main+2+0),w
  1243  0188  00A9               	movwf	0+(?_SENDData)+04h
  1244  0189  0845               	movf	(_beforeButtonStates),w
  1245  018A  0675               	xorwf	(_currenButtonStates),w
  1246  018B  3000               	movlw	0
  1247  018C  1D03               	skipz
  1248  018D  3001               	movlw	1
  1249  018E  00FB               	movwf	(??_main+3+0)
  1250  018F  087B               	movf	(??_main+3+0),w
  1251  0190  00A8               	movwf	0+(?_SENDData)+03h
  1252  0191  0873               	movf	(_UPDATE_SONAR),w
  1253  0192  120A  118A  229A   	fcall	_SENDData
              120A  118A         
  1254                           	
  1255  0197                     l30002377:	
  1256                           	line	121
  1257                           ;main.c: 121: UPDATE_SONAR = 0;
  1258  0197  1003               	clrc
  1259  0198  3000               	movlw	0
  1260  0199  1803               	btfsc	status,0
  1261  019A  3001               	movlw	1
  1262  019B  00F3               	movwf	(_UPDATE_SONAR)
  1263                           	
  1264  019C                     l30002378:	
  1265                           	line	122
  1266                           ;main.c: 122: UPDATE_VOLTMETER = 0;
  1267  019C  1003               	clrc
  1268  019D  3000               	movlw	0
  1269  019E  1803               	btfsc	status,0
  1270  019F  3001               	movlw	1
  1271  01A0  00F4               	movwf	(_UPDATE_VOLTMETER)
  1272                           	
  1273  01A1                     l30002379:	
  1274                           	line	123
  1275                           ;main.c: 123: beforeButtonStates = currenButtonStates;
  1276  01A1  0875               	movf	(_currenButtonStates),w
  1277  01A2  1283               	bcf	status, 5	;RP0=0, select bank0
  1278  01A3  1303               	bcf	status, 6	;RP1=0, select bank0
  1279  01A4  00C5               	movwf	(_beforeButtonStates)
  1280  01A5  2940               	goto	l30002371
  1281                           	global	start
  1282  01A6  120A  118A  2812   	ljmp	start
  1283                           	opt stack 0
  1284                           GLOBAL	__end_of_main
  1285  01A9                     	__end_of_main:
  1286                           ; =============== function _main ends ============
  1287                           
  1288                           psect	maintext
  1289                           	line	136
  1290                           	signat	_main,8314
  1291                           	global	_SENDData
  1292                           psect	text176,local,class=CODE,delta=2
  1293                           global __ptext176
  1294  029A                     __ptext176:
  1295                           
  1296                           ; *************** function _SENDData *****************
  1297                           ; Defined at:
  1298                           ;		line 16 in file "routines.c"
  1299                           ; Parameters:    Size  Location     Type
  1300                           ;  UPDATE_SONAR    1    wreg     unsigned char 
  1301                           ;  SONO            1    5[BANK0 ] PTR struct sonarModul
  1302                           ;		 -> SONAR(2), 
  1303                           ;  UPDATE_VOLTM    1    6[BANK0 ] unsigned char 
  1304                           ;  VOLT            1    7[BANK0 ] PTR struct anModul
  1305                           ;		 -> VOLTMETER(2), 
  1306                           ;  UPDATE_BUTTO    1    8[BANK0 ] unsigned char 
  1307                           ;  BTSValue        1    9[BANK0 ] unsigned char 
  1308                           ; Auto vars:     Size  Location     Type
  1309                           ;  UPDATE_SONAR    1    4[BANK0 ] unsigned char 
  1310                           ; Return value:  Size  Location     Type
  1311                           ;		None               void
  1312                           ; Registers used:
  1313                           ;		wreg, fsr0l, fsr0h, status,2, status,0, pclath, cstack
  1314                           ; Tracked objects:
  1315                           ;		On entry : 0/0
  1316                           ;		On exit  : 0/0
  1317                           ;		Unchanged: 0/0
  1318                           ; Data sizes:     COMMON   BANK0   BANK1   BANK3   BANK2
  1319                           ;      Locals:         1       6       0       0       0
  1320                           ;      Temp:     1
  1321                           ;      Total:    7
  1322                           ; This function calls:
  1323                           ;		_odesliData1
  1324                           ; This function is called by:
  1325                           ;		_main
  1326                           ; This function uses a non-reentrant model
  1327                           ; 
  1328                           psect	text176
  1329                           	file	"routines.c"
  1330                           	line	16
  1331                           	global	__size_of_SENDData
  1332  0039                     	__size_of_SENDData	equ	__end_of_SENDData-_SENDData
  1333                           ;pic168xa.h: 19: volatile unsigned char INDF @ 0x00;
  1334                           ;pic168xa.h: 20: volatile unsigned char TMR0 @ 0x01;
  1335                           ;pic168xa.h: 21: volatile unsigned char PCL @ 0x02;
  1336                           ;pic168xa.h: 22: volatile unsigned char STATUS @ 0x03;
  1337                           ;pic168xa.h: 23: unsigned char FSR @ 0x04;
  1338                           ;pic168xa.h: 24: volatile unsigned char PORTA @ 0x05;
  1339                           ;pic168xa.h: 25: volatile unsigned char PORTB @ 0x06;
  1340                           ;pic168xa.h: 26: volatile unsigned char PORTC @ 0x07;
  1341                           ;pic168xa.h: 28: volatile unsigned char PORTD @ 0x08;
  1342                           ;pic168xa.h: 29: volatile unsigned char PORTE @ 0x09;
  1343                           	
  1344  029A                     _SENDData:	
  1345                           	opt stack 2
  1346                           ; Regs used in _SENDData: [wreg-fsr0h+status,2+status,0+pclath+cstack]
  1347                           ;SENDData@UPDATE_SONAR stored from wreg
  1348                           	line	18
  1349  029A  1283               	bcf	status, 5	;RP0=0, select bank0
  1350  029B  1303               	bcf	status, 6	;RP1=0, select bank0
  1351  029C  00A4               	movwf	(SENDData@UPDATE_SONAR)
  1352                           	
  1353  029D                     l30002396:	
  1354                           ;routines.c: 18: if(!UPDATE_SONAR && !UPDATE_VOLTMETER && !UPDATE_BUTTONS){return;}
  1355  029D  08A4               	movf	(SENDData@UPDATE_SONAR),f
  1356  029E  1D03               	skipz
  1357  029F  2AA1               	goto	u1041
  1358  02A0  2AA2               	goto	u1040
  1359  02A1                     u1041:
  1360  02A1  2AAD               	goto	l30002400
  1361  02A2                     u1040:
  1362                           	
  1363  02A2                     l30002397:	
  1364  02A2  08A6               	movf	(SENDData@UPDATE_VOLTMETER),f
  1365  02A3  1D03               	skipz
  1366  02A4  2AA6               	goto	u1051
  1367  02A5  2AA7               	goto	u1050
  1368  02A6                     u1051:
  1369  02A6  2AAD               	goto	l30002400
  1370  02A7                     u1050:
  1371                           	
  1372  02A7                     l30002398:	
  1373  02A7  08A8               	movf	(SENDData@UPDATE_BUTTONS),f
  1374  02A8  1D03               	skipz
  1375  02A9  2AAB               	goto	u1061
  1376  02AA  2AAC               	goto	u1060
  1377  02AB                     u1061:
  1378  02AB  2AAD               	goto	l30002400
  1379  02AC                     u1060:
  1380  02AC  2AD2               	goto	l70
  1381                           	
  1382  02AD                     l30002400:	
  1383                           	line	47
  1384                           ;routines.c: 47: protokol[0] = (*SONO).DATA_H;
  1385  02AD  0825               	movf	(SENDData@SONO),w
  1386  02AE  0084               	movwf	fsr0
  1387  02AF  1383               	bcf	status, 7	;select IRP bank0
  1388  02B0  0800               	movf	indf,w
  1389  02B1  00C8               	movwf	(_protokol)
  1390                           	line	48
  1391                           ;routines.c: 48: protokol[1] = (*SONO).DATA_L;
  1392  02B2  0825               	movf	(SENDData@SONO),w
  1393  02B3  3E01               	addlw	01h
  1394  02B4  0084               	movwf	fsr0
  1395  02B5  0800               	movf	indf,w
  1396  02B6  00F7               	movwf	(??_SENDData+0+0)
  1397  02B7  0877               	movf	(??_SENDData+0+0),w
  1398  02B8  00C9               	movwf	0+(_protokol)+01h
  1399                           	line	49
  1400                           ;routines.c: 49: protokol[2] = (*VOLT).DATA_H;
  1401  02B9  0827               	movf	(SENDData@VOLT),w
  1402  02BA  0084               	movwf	fsr0
  1403  02BB  0800               	movf	indf,w
  1404  02BC  00F7               	movwf	(??_SENDData+0+0)
  1405  02BD  0877               	movf	(??_SENDData+0+0),w
  1406  02BE  00CA               	movwf	0+(_protokol)+02h
  1407                           	line	50
  1408                           ;routines.c: 50: protokol[3] = (*VOLT).DATA_L;
  1409  02BF  0827               	movf	(SENDData@VOLT),w
  1410  02C0  3E01               	addlw	01h
  1411  02C1  0084               	movwf	fsr0
  1412  02C2  0800               	movf	indf,w
  1413  02C3  00F7               	movwf	(??_SENDData+0+0)
  1414  02C4  0877               	movf	(??_SENDData+0+0),w
  1415  02C5  00CB               	movwf	0+(_protokol)+03h
  1416                           	
  1417  02C6                     l30002401:	
  1418                           	line	51
  1419                           ;routines.c: 51: protokol[4] = BTSValue;
  1420  02C6  0829               	movf	(SENDData@BTSValue),w
  1421  02C7  00F7               	movwf	(??_SENDData+0+0)
  1422  02C8  0877               	movf	(??_SENDData+0+0),w
  1423  02C9  00CC               	movwf	0+(_protokol)+04h
  1424                           	
  1425  02CA                     l30002402:	
  1426                           	line	53
  1427                           ;routines.c: 53: odesliData1(protokol, (sizeof(protokol) / sizeof(protokol[0])));
  1428  02CA  3005               	movlw	(05h)
  1429  02CB  00A3               	movwf	(?_odesliData1)
  1430  02CC  3048               	movlw	((_protokol))&0ffh
  1431  02CD  120A  118A  2204   	fcall	_odesliData1
              120A  118A         
  1432                           	
  1433  02D2                     l70:	
  1434  02D2  0008               	return
  1435                           	opt stack 0
  1436                           GLOBAL	__end_of_SENDData
  1437  02D3                     	__end_of_SENDData:
  1438                           ; =============== function _SENDData ends ============
  1439                           
  1440                           psect	text177,local,class=CODE,delta=2
  1441                           global __ptext177
  1442  0386                     __ptext177:
  1443                           	line	54
  1444                           	signat	_SENDData,24696
  1445                           	global	_ANALOG_READ
  1446                           
  1447                           ; *************** function _ANALOG_READ *****************
  1448                           ; Defined at:
  1449                           ;		line 16 in file "analog_modul.c"
  1450                           ; Parameters:    Size  Location     Type
  1451                           ;		None
  1452                           ; Auto vars:     Size  Location     Type
  1453                           ;		None
  1454                           ; Return value:  Size  Location     Type
  1455                           ;                  1    wreg      PTR struct anModul
  1456                           ; Registers used:
  1457                           ;		wreg, status,2, status,0, pclath, cstack
  1458                           ; Tracked objects:
  1459                           ;		On entry : 0/0
  1460                           ;		On exit  : 0/0
  1461                           ;		Unchanged: 0/0
  1462                           ; Data sizes:     COMMON   BANK0   BANK1   BANK3   BANK2
  1463                           ;      Locals:         1       0       0       0       0
  1464                           ;      Temp:     1
  1465                           ;      Total:    1
  1466                           ; This function calls:
  1467                           ;		_DELAY_TIMER1_15uS
  1468                           ; This function is called by:
  1469                           ;		_main
  1470                           ; This function uses a non-reentrant model
  1471                           ; 
  1472                           psect	text177
  1473                           	file	"analog_modul.c"
  1474                           	line	16
  1475                           	global	__size_of_ANALOG_READ
  1476  0024                     	__size_of_ANALOG_READ	equ	__end_of_ANALOG_READ-_ANALOG_READ
  1477                           ;analog_modul.c: 14: unsigned char init_con = 0;
  1478                           ;analog_modul.c: 16: struct anModul *ANALOG_READ(void) {
  1479                           	
  1480  0386                     _ANALOG_READ:	
  1481                           	opt stack 2
  1482                           ; Regs used in _ANALOG_READ: [wreg+status,2+status,0+pclath+cstack]
  1483                           	line	20
  1484                           	
  1485  0386                     l30002380:	
  1486                           ;analog_modul.c: 20: ADCON0 = 0x80;
  1487  0386  3080               	movlw	(080h)
  1488  0387  1283               	bcf	status, 5	;RP0=0, select bank0
  1489  0388  1303               	bcf	status, 6	;RP1=0, select bank0
  1490  0389  009F               	movwf	(31)	;volatile
  1491                           	line	24
  1492                           ;analog_modul.c: 24: ADCON1 = 0xce;
  1493  038A  30CE               	movlw	(0CEh)
  1494  038B  1683               	bsf	status, 5	;RP0=1, select bank1
  1495  038C  1303               	bcf	status, 6	;RP1=0, select bank1
  1496  038D  009F               	movwf	(159)^080h	;volatile
  1497                           	
  1498  038E                     l30002381:	
  1499                           	line	36
  1500                           ;analog_modul.c: 36: ADON = 1;
  1501  038E  1283               	bcf	status, 5	;RP0=0, select bank0
  1502  038F  1303               	bcf	status, 6	;RP1=0, select bank0
  1503  0390  141F               	bsf	(248/8),(248)&7
  1504                           	
  1505  0391                     l30002382:	
  1506                           	line	37
  1507                           ;analog_modul.c: 37: DELAY_TIMER1_15uS();
  1508  0391  120A  118A  23E0   	fcall	_DELAY_TIMER1_15uS
              120A  118A         
  1509                           	
  1510  0396                     l30002383:	
  1511                           	line	39
  1512                           ;analog_modul.c: 39: ADGO = 1;
  1513  0396  1283               	bcf	status, 5	;RP0=0, select bank0
  1514  0397  1303               	bcf	status, 6	;RP1=0, select bank0
  1515  0398  151F               	bsf	(250/8),(250)&7
  1516                           	
  1517  0399                     l42:	
  1518                           	line	40
  1519  0399  191F               	btfsc	(250/8),(250)&7
  1520  039A  2B9C               	goto	u981
  1521  039B  2B9D               	goto	u980
  1522  039C                     u981:
  1523  039C  2B99               	goto	l42
  1524  039D                     u980:
  1525                           	
  1526  039D                     l44:	
  1527                           	line	42
  1528                           ;analog_modul.c: 42: ADON = 0;
  1529  039D  101F               	bcf	(248/8),(248)&7
  1530                           	
  1531  039E                     l30002384:	
  1532                           	line	49
  1533                           ;analog_modul.c: 49: VOLTAGE.DATA_H = ADRESH;
  1534  039E  081E               	movf	(30),w	;volatile
  1535  039F  00CF               	movwf	(_VOLTAGE)
  1536                           	line	50
  1537                           ;analog_modul.c: 50: VOLTAGE.DATA_L = ADRESL;
  1538  03A0  1683               	bsf	status, 5	;RP0=1, select bank1
  1539  03A1  1303               	bcf	status, 6	;RP1=0, select bank1
  1540  03A2  081E               	movf	(158)^080h,w	;volatile
  1541  03A3  00F6               	movwf	(??_ANALOG_READ+0+0)
  1542  03A4  0876               	movf	(??_ANALOG_READ+0+0),w
  1543  03A5  1283               	bcf	status, 5	;RP0=0, select bank0
  1544  03A6  1303               	bcf	status, 6	;RP1=0, select bank0
  1545  03A7  00D0               	movwf	0+(_VOLTAGE)+01h
  1546                           	line	52
  1547                           ;analog_modul.c: 52: return &VOLTAGE;
  1548  03A8  304F               	movlw	((_VOLTAGE))&0ffh
  1549                           	
  1550  03A9                     l41:	
  1551  03A9  0008               	return
  1552                           	opt stack 0
  1553                           GLOBAL	__end_of_ANALOG_READ
  1554  03AA                     	__end_of_ANALOG_READ:
  1555                           ; =============== function _ANALOG_READ ends ============
  1556                           
  1557                           psect	text178,local,class=CODE,delta=2
  1558                           global __ptext178
  1559  040C                     __ptext178:
  1560                           	line	53
  1561                           	signat	_ANALOG_READ,89
  1562                           	global	_prepareButtons
  1563                           
  1564                           ; *************** function _prepareButtons *****************
  1565                           ; Defined at:
  1566                           ;		line 58 in file "routines.c"
  1567                           ; Parameters:    Size  Location     Type
  1568                           ;  BTL             1    wreg     unsigned char 
  1569                           ;  BTR             1    1[BANK0 ] unsigned char 
  1570                           ; Auto vars:     Size  Location     Type
  1571                           ;  BTL             1    0[BANK0 ] unsigned char 
  1572                           ; Return value:  Size  Location     Type
  1573                           ;                  1    wreg      unsigned char 
  1574                           ; Registers used:
  1575                           ;		wreg, status,2, status,0
  1576                           ; Tracked objects:
  1577                           ;		On entry : 0/0
  1578                           ;		On exit  : 0/0
  1579                           ;		Unchanged: 0/0
  1580                           ; Data sizes:     COMMON   BANK0   BANK1   BANK3   BANK2
  1581                           ;      Locals:         1       2       0       0       0
  1582                           ;      Temp:     1
  1583                           ;      Total:    3
  1584                           ; This function calls:
  1585                           ;		Nothing
  1586                           ; This function is called by:
  1587                           ;		_main
  1588                           ; This function uses a non-reentrant model
  1589                           ; 
  1590                           psect	text178
  1591                           	file	"routines.c"
  1592                           	line	58
  1593                           	global	__size_of_prepareButtons
  1594  0010                     	__size_of_prepareButtons	equ	__end_of_prepareButtons-_prepareButtons
  1595                           ;routines.c: 58: unsigned char prepareButtons(unsigned char BTL, unsigned char BTR){
  1596                           	
  1597  040C                     _prepareButtons:	
  1598                           	opt stack 2
  1599                           ; Regs used in _prepareButtons: [wreg+status,2+status,0]
  1600                           ;prepareButtons@BTL stored from wreg
  1601                           	line	66
  1602  040C  1283               	bcf	status, 5	;RP0=0, select bank0
  1603  040D  1303               	bcf	status, 6	;RP1=0, select bank0
  1604  040E  00A0               	movwf	(prepareButtons@BTL)
  1605                           	
  1606  040F                     l30002403:	
  1607                           ;routines.c: 66: return (((BTL&0x01) << 1) + (BTR&0x01));
  1608  040F  0820               	movf	(prepareButtons@BTL),w
  1609  0410  3901               	andlw	01h
  1610  0411  00F6               	movwf	(??_prepareButtons+0+0)
  1611  0412  3001               	movlw	01h
  1612  0413                     u1075:
  1613  0413  1003               	clrc
  1614  0414  0DF6               	rlf	(??_prepareButtons+0+0),f
  1615  0415  3EFF               	addlw	-1
  1616  0416  1D03               	skipz
  1617  0417  2C13               	goto	u1075
  1618  0418  0821               	movf	(prepareButtons@BTR),w
  1619  0419  3901               	andlw	01h
  1620  041A  0776               	addwf	0+(??_prepareButtons+0+0),w
  1621                           	
  1622  041B                     l72:	
  1623  041B  0008               	return
  1624                           	opt stack 0
  1625                           GLOBAL	__end_of_prepareButtons
  1626  041C                     	__end_of_prepareButtons:
  1627                           ; =============== function _prepareButtons ends ============
  1628                           
  1629                           psect	text179,local,class=CODE,delta=2
  1630                           global __ptext179
  1631  03C9                     __ptext179:
  1632                           	line	68
  1633                           	signat	_prepareButtons,8313
  1634                           	global	_BLUETOOTH_INIT
  1635                           
  1636                           ; *************** function _BLUETOOTH_INIT *****************
  1637                           ; Defined at:
  1638                           ;		line 16 in file "bluetooth_modul.c"
  1639                           ; Parameters:    Size  Location     Type
  1640                           ;		None
  1641                           ; Auto vars:     Size  Location     Type
  1642                           ;		None
  1643                           ; Return value:  Size  Location     Type
  1644                           ;		None               void
  1645                           ; Registers used:
  1646                           ;		wreg
  1647                           ; Tracked objects:
  1648                           ;		On entry : 0/0
  1649                           ;		On exit  : 0/0
  1650                           ;		Unchanged: 0/0
  1651                           ; Data sizes:     COMMON   BANK0   BANK1   BANK3   BANK2
  1652                           ;      Locals:         0       0       0       0       0
  1653                           ;      Temp:     0
  1654                           ;      Total:    0
  1655                           ; This function calls:
  1656                           ;		Nothing
  1657                           ; This function is called by:
  1658                           ;		_main
  1659                           ; This function uses a non-reentrant model
  1660                           ; 
  1661                           psect	text179
  1662                           	file	"bluetooth_modul.c"
  1663                           	line	16
  1664                           	global	__size_of_BLUETOOTH_INIT
  1665  0017                     	__size_of_BLUETOOTH_INIT	equ	__end_of_BLUETOOTH_INIT-_BLUETOOTH_INIT
  1666                           ;bluetooth_modul.c: 16: void BLUETOOTH_INIT(void){
  1667                           	
  1668  03C9                     _BLUETOOTH_INIT:	
  1669                           	opt stack 2
  1670                           ; Regs used in _BLUETOOTH_INIT: [wreg]
  1671                           	line	18
  1672                           	
  1673  03C9                     l30002405:	
  1674                           ;bluetooth_modul.c: 18: TRISC6 = 0;
  1675  03C9  1683               	bsf	status, 5	;RP0=1, select bank1
  1676  03CA  1303               	bcf	status, 6	;RP1=0, select bank1
  1677  03CB  1307               	bcf	(1086/8)^080h,(1086)&7
  1678                           	line	19
  1679                           ;bluetooth_modul.c: 19: TRISC7 = 1;
  1680  03CC  1787               	bsf	(1087/8)^080h,(1087)&7
  1681                           	line	22
  1682                           ;bluetooth_modul.c: 22: TX9 = 0;
  1683  03CD  1318               	bcf	(1222/8)^080h,(1222)&7
  1684                           	line	23
  1685                           ;bluetooth_modul.c: 23: TXEN = 1;
  1686  03CE  1698               	bsf	(1221/8)^080h,(1221)&7
  1687                           	line	24
  1688                           ;bluetooth_modul.c: 24: SYNC = 0;
  1689  03CF  1218               	bcf	(1220/8)^080h,(1220)&7
  1690                           	line	25
  1691                           ;bluetooth_modul.c: 25: BRGH = 0;
  1692  03D0  1118               	bcf	(1218/8)^080h,(1218)&7
  1693                           	line	28
  1694                           ;bluetooth_modul.c: 28: SPEN = 1;
  1695  03D1  1283               	bcf	status, 5	;RP0=0, select bank0
  1696  03D2  1303               	bcf	status, 6	;RP1=0, select bank0
  1697  03D3  1798               	bsf	(199/8),(199)&7
  1698                           	line	29
  1699                           ;bluetooth_modul.c: 29: RX9 = 0;
  1700  03D4  1318               	bcf	(198/8),(198)&7
  1701                           	line	30
  1702                           ;bluetooth_modul.c: 30: CREN = 1;
  1703  03D5  1618               	bsf	(196/8),(196)&7
  1704                           	
  1705  03D6                     l30002406:	
  1706                           	line	33
  1707                           ;bluetooth_modul.c: 33: SPBRG = 15;
  1708  03D6  300F               	movlw	(0Fh)
  1709  03D7  1683               	bsf	status, 5	;RP0=1, select bank1
  1710  03D8  1303               	bcf	status, 6	;RP1=0, select bank1
  1711  03D9  0099               	movwf	(153)^080h	;volatile
  1712                           	
  1713  03DA                     l30002407:	
  1714                           	line	39
  1715                           ;bluetooth_modul.c: 39: RCIE = 1;
  1716  03DA  168C               	bsf	(1125/8)^080h,(1125)&7
  1717                           	
  1718  03DB                     l30002408:	
  1719                           	line	40
  1720                           ;bluetooth_modul.c: 40: GIE = 1;
  1721  03DB  1283               	bcf	status, 5	;RP0=0, select bank0
  1722  03DC  1303               	bcf	status, 6	;RP1=0, select bank0
  1723  03DD  178B               	bsf	(95/8),(95)&7
  1724                           	
  1725  03DE                     l30002409:	
  1726                           	line	41
  1727                           ;bluetooth_modul.c: 41: PEIE = 1;
  1728  03DE  170B               	bsf	(94/8),(94)&7
  1729                           	
  1730  03DF                     l34:	
  1731  03DF  0008               	return
  1732                           	opt stack 0
  1733                           GLOBAL	__end_of_BLUETOOTH_INIT
  1734  03E0                     	__end_of_BLUETOOTH_INIT:
  1735                           ; =============== function _BLUETOOTH_INIT ends ============
  1736                           
  1737                           psect	text180,local,class=CODE,delta=2
  1738                           global __ptext180
  1739  0251                     __ptext180:
  1740                           	line	42
  1741                           	signat	_BLUETOOTH_INIT,88
  1742                           	global	_GET_SONAR_DATA
  1743                           
  1744                           ; *************** function _GET_SONAR_DATA *****************
  1745                           ; Defined at:
  1746                           ;		line 13 in file "sonar_modul.c"
  1747                           ; Parameters:    Size  Location     Type
  1748                           ;		None
  1749                           ; Auto vars:     Size  Location     Type
  1750                           ;		None
  1751                           ; Return value:  Size  Location     Type
  1752                           ;                  1    wreg      PTR struct sonarModul
  1753                           ; Registers used:
  1754                           ;		wreg, status,2, status,0, pclath, cstack
  1755                           ; Tracked objects:
  1756                           ;		On entry : 0/0
  1757                           ;		On exit  : 0/0
  1758                           ;		Unchanged: 0/0
  1759                           ; Data sizes:     COMMON   BANK0   BANK1   BANK3   BANK2
  1760                           ;      Locals:         1       0       0       0       0
  1761                           ;      Temp:     1
  1762                           ;      Total:    1
  1763                           ; This function calls:
  1764                           ;		_DELAY_TIMER1_15uS
  1765                           ;		_DELAY_TIMER1_50mS
  1766                           ; This function is called by:
  1767                           ;		_main
  1768                           ; This function uses a non-reentrant model
  1769                           ; 
  1770                           psect	text180
  1771                           	file	"sonar_modul.c"
  1772                           	line	13
  1773                           	global	__size_of_GET_SONAR_DATA
  1774  0049                     	__size_of_GET_SONAR_DATA	equ	__end_of_GET_SONAR_DATA-_GET_SONAR_DATA
  1775                           ;sonar_modul.c: 13: struct sonarModul *GET_SONAR_DATA(void){
  1776                           	
  1777  0251                     _GET_SONAR_DATA:	
  1778                           	opt stack 2
  1779                           ; Regs used in _GET_SONAR_DATA: [wreg+status,2+status,0+pclath+cstack]
  1780                           	line	39
  1781                           	
  1782  0251                     l30002356:	
  1783                           ;sonar_modul.c: 39: RD5 = 0;
  1784  0251  1283               	bcf	status, 5	;RP0=0, select bank0
  1785  0252  1303               	bcf	status, 6	;RP1=0, select bank0
  1786  0253  1288               	bcf	(69/8),(69)&7
  1787                           	line	40
  1788                           ;sonar_modul.c: 40: TRISD5 = 0;
  1789  0254  1683               	bsf	status, 5	;RP0=1, select bank1
  1790  0255  1303               	bcf	status, 6	;RP1=0, select bank1
  1791  0256  1288               	bcf	(1093/8)^080h,(1093)&7
  1792                           	
  1793  0257                     l30002357:	
  1794                           	line	41
  1795                           ;sonar_modul.c: 41: DELAY_TIMER1_15uS();
  1796  0257  120A  118A  23E0   	fcall	_DELAY_TIMER1_15uS
              120A  118A         
  1797                           	
  1798  025C                     l30002358:	
  1799                           	line	44
  1800                           ;sonar_modul.c: 44: RD5 = 1;
  1801  025C  1283               	bcf	status, 5	;RP0=0, select bank0
  1802  025D  1303               	bcf	status, 6	;RP1=0, select bank0
  1803  025E  1688               	bsf	(69/8),(69)&7
  1804                           	line	45
  1805                           ;sonar_modul.c: 45: DELAY_TIMER1_15uS();
  1806  025F  120A  118A  23E0   	fcall	_DELAY_TIMER1_15uS
              120A  118A         
  1807                           	
  1808  0264                     l30002359:	
  1809                           	line	46
  1810                           ;sonar_modul.c: 46: RD5 = 0;
  1811  0264  1283               	bcf	status, 5	;RP0=0, select bank0
  1812  0265  1303               	bcf	status, 6	;RP1=0, select bank0
  1813  0266  1288               	bcf	(69/8),(69)&7
  1814                           	line	47
  1815                           ;sonar_modul.c: 47: DELAY_TIMER1_15uS();
  1816  0267  120A  118A  23E0   	fcall	_DELAY_TIMER1_15uS
              120A  118A         
  1817                           	
  1818  026C                     l30002360:	
  1819                           	line	57
  1820                           ;sonar_modul.c: 57: TRISD5 = 1;
  1821  026C  1683               	bsf	status, 5	;RP0=1, select bank1
  1822  026D  1303               	bcf	status, 6	;RP1=0, select bank1
  1823  026E  1688               	bsf	(1093/8)^080h,(1093)&7
  1824                           	
  1825  026F                     l30002361:	
  1826                           	line	67
  1827                           ;sonar_modul.c: 67: TMR1H = 0x00;
  1828  026F  1003               	clrc
  1829  0270  3000               	movlw	0
  1830  0271  1803               	btfsc	status,0
  1831  0272  3001               	movlw	1
  1832  0273  1283               	bcf	status, 5	;RP0=0, select bank0
  1833  0274  1303               	bcf	status, 6	;RP1=0, select bank0
  1834  0275  008F               	movwf	(15)	;volatile
  1835                           	
  1836  0276                     l30002362:	
  1837                           	line	68
  1838                           ;sonar_modul.c: 68: TMR1L = 0x00;
  1839  0276  1003               	clrc
  1840  0277  3000               	movlw	0
  1841  0278  1803               	btfsc	status,0
  1842  0279  3001               	movlw	1
  1843  027A  008E               	movwf	(14)	;volatile
  1844                           	
  1845  027B                     l30002363:	
  1846                           	line	69
  1847                           ;sonar_modul.c: 69: T1CON = 0x30;
  1848  027B  3030               	movlw	(030h)
  1849  027C  0090               	movwf	(16)	;volatile
  1850                           	
  1851  027D                     l30002364:	
  1852                           	line	70
  1853                           ;sonar_modul.c: 70: TMR1IF = 0;
  1854  027D  100C               	bcf	(96/8),(96)&7
  1855                           	
  1856  027E                     l27:	
  1857                           	line	81
  1858  027E  1E88               	btfss	(69/8),(69)&7
  1859  027F  2A81               	goto	u941
  1860  0280  2A82               	goto	u940
  1861  0281                     u941:
  1862  0281  2A7E               	goto	l27
  1863  0282                     u940:
  1864                           	
  1865  0282                     l29:	
  1866                           	line	82
  1867                           ;sonar_modul.c: 82: TMR1ON = 1;
  1868  0282  1410               	bsf	(128/8),(128)&7
  1869                           	
  1870  0283                     l30:	
  1871                           	line	83
  1872  0283  1A88               	btfsc	(69/8),(69)&7
  1873  0284  2A86               	goto	u951
  1874  0285  2A87               	goto	u950
  1875  0286                     u951:
  1876  0286  2A83               	goto	l30
  1877  0287                     u950:
  1878                           	
  1879  0287                     l32:	
  1880                           	line	84
  1881                           ;sonar_modul.c: 84: TMR1ON = 0;
  1882  0287  1010               	bcf	(128/8),(128)&7
  1883                           	line	91
  1884                           ;sonar_modul.c: 91: TRISD5 = 0;
  1885  0288  1683               	bsf	status, 5	;RP0=1, select bank1
  1886  0289  1303               	bcf	status, 6	;RP1=0, select bank1
  1887  028A  1288               	bcf	(1093/8)^080h,(1093)&7
  1888                           	
  1889  028B                     l30002365:	
  1890                           	line	111
  1891                           ;sonar_modul.c: 111: sonar.DATA_H = TMR1H;
  1892  028B  1283               	bcf	status, 5	;RP0=0, select bank0
  1893  028C  1303               	bcf	status, 6	;RP1=0, select bank0
  1894  028D  080F               	movf	(15),w	;volatile
  1895  028E  00D3               	movwf	(_sonar)
  1896                           	line	112
  1897                           ;sonar_modul.c: 112: sonar.DATA_L = TMR1L;
  1898  028F  080E               	movf	(14),w	;volatile
  1899  0290  00F6               	movwf	(??_GET_SONAR_DATA+0+0)
  1900  0291  0876               	movf	(??_GET_SONAR_DATA+0+0),w
  1901  0292  00D4               	movwf	0+(_sonar)+01h
  1902                           	
  1903  0293                     l30002366:	
  1904                           	line	121
  1905                           ;sonar_modul.c: 121: DELAY_TIMER1_50mS();
  1906  0293  120A  118A  241C   	fcall	_DELAY_TIMER1_50mS
              120A  118A         
  1907                           	
  1908  0298                     l30002367:	
  1909                           	line	123
  1910                           ;sonar_modul.c: 123: return &sonar;
  1911  0298  3053               	movlw	((_sonar))&0ffh
  1912                           	
  1913  0299                     l26:	
  1914  0299  0008               	return
  1915                           	opt stack 0
  1916                           GLOBAL	__end_of_GET_SONAR_DATA
  1917  029A                     	__end_of_GET_SONAR_DATA:
  1918                           ; =============== function _GET_SONAR_DATA ends ============
  1919                           
  1920                           psect	text181,local,class=CODE,delta=2
  1921                           global __ptext181
  1922  0204                     __ptext181:
  1923                           	line	124
  1924                           	signat	_GET_SONAR_DATA,89
  1925                           	global	_odesliData1
  1926                           
  1927                           ; *************** function _odesliData1 *****************
  1928                           ; Defined at:
  1929                           ;		line 73 in file "routines.c"
  1930                           ; Parameters:    Size  Location     Type
  1931                           ;  pole            1    wreg     PTR unsigned char 
  1932                           ;		 -> protokol(5), 
  1933                           ;  delkaPole       1    3[BANK0 ] unsigned char 
  1934                           ; Auto vars:     Size  Location     Type
  1935                           ;  pole            1    0[BANK0 ] PTR unsigned char 
  1936                           ;		 -> protokol(5), 
  1937                           ;  index           2    1[BANK0 ] int 
  1938                           ; Return value:  Size  Location     Type
  1939                           ;		None               void
  1940                           ; Registers used:
  1941                           ;		wreg, fsr0l, fsr0h, status,2, status,0
  1942                           ; Tracked objects:
  1943                           ;		On entry : 0/0
  1944                           ;		On exit  : 0/0
  1945                           ;		Unchanged: 0/0
  1946                           ; Data sizes:     COMMON   BANK0   BANK1   BANK3   BANK2
  1947                           ;      Locals:         1       4       0       0       0
  1948                           ;      Temp:     1
  1949                           ;      Total:    5
  1950                           ; This function calls:
  1951                           ;		Nothing
  1952                           ; This function is called by:
  1953                           ;		_SENDData
  1954                           ; This function uses a non-reentrant model
  1955                           ; 
  1956                           psect	text181
  1957                           	file	"routines.c"
  1958                           	line	73
  1959                           	global	__size_of_odesliData1
  1960  004D                     	__size_of_odesliData1	equ	__end_of_odesliData1-_odesliData1
  1961                           ;routines.c: 73: void odesliData1(unsigned char pole[], unsigned char delkaPole){
  1962                           	
  1963  0204                     _odesliData1:	
  1964                           	opt stack 1
  1965                           ; Regs used in _odesliData1: [wreg-fsr0h+status,2+status,0]
  1966                           ;odesliData1@pole stored from wreg
  1967                           	line	82
  1968  0204  1283               	bcf	status, 5	;RP0=0, select bank0
  1969  0205  1303               	bcf	status, 6	;RP1=0, select bank0
  1970  0206  00A0               	movwf	(odesliData1@pole)
  1971                           	
  1972  0207                     l30002389:	
  1973                           ;routines.c: 81: int index;
  1974                           ;routines.c: 82: for(index = 0;index<delkaPole;index++){
  1975  0207  3000               	movlw	low(0)
  1976  0208  00A1               	movwf	(odesliData1@index)
  1977  0209  3000               	movlw	high(0)
  1978  020A  00A2               	movwf	((odesliData1@index))+1
  1979  020B  2A20               	goto	l30002392
  1980                           	
  1981  020C                     l78:	
  1982                           	line	83
  1983  020C  1683               	bsf	status, 5	;RP0=1, select bank1
  1984  020D  1303               	bcf	status, 6	;RP1=0, select bank1
  1985  020E  1C98               	btfss	(1217/8)^080h,(1217)&7
  1986  020F  2A11               	goto	u1001
  1987  0210  2A12               	goto	u1000
  1988  0211                     u1001:
  1989  0211  2A0C               	goto	l78
  1990  0212                     u1000:
  1991                           	
  1992  0212                     l30002390:	
  1993                           	line	84
  1994                           ;routines.c: 84: TXREG = pole[index];
  1995  0212  1283               	bcf	status, 5	;RP0=0, select bank0
  1996  0213  1303               	bcf	status, 6	;RP1=0, select bank0
  1997  0214  0821               	movf	(odesliData1@index),w
  1998  0215  0720               	addwf	(odesliData1@pole),w
  1999  0216  0084               	movwf	fsr0
  2000  0217  1383               	bcf	status, 7	;select IRP bank0
  2001  0218  0800               	movf	indf,w
  2002  0219  0099               	movwf	(25)	;volatile
  2003                           	
  2004  021A                     l30002391:	
  2005                           	line	82
  2006  021A  3001               	movlw	low(01h)
  2007  021B  07A1               	addwf	(odesliData1@index),f
  2008  021C  1803               	skipnc
  2009  021D  0AA2               	incf	(odesliData1@index+1),f
  2010  021E  3000               	movlw	high(01h)
  2011  021F  07A2               	addwf	(odesliData1@index+1),f
  2012                           	
  2013  0220                     l30002392:	
  2014  0220  0822               	movf	(odesliData1@index+1),w
  2015  0221  3A80               	xorlw	80h
  2016  0222  00F6               	movwf	(??_odesliData1+0+0)
  2017  0223  3080               	movlw	80h
  2018  0224  0276               	subwf	(??_odesliData1+0+0),w
  2019  0225  1D03               	skipz
  2020  0226  2A29               	goto	u1015
  2021  0227  0823               	movf	(odesliData1@delkaPole),w
  2022  0228  0221               	subwf	(odesliData1@index),w
  2023  0229                     u1015:
  2024                           
  2025  0229  1C03               	skipc
  2026  022A  2A2C               	goto	u1011
  2027  022B  2A2D               	goto	u1010
  2028  022C                     u1011:
  2029  022C  2A0C               	goto	l78
  2030  022D                     u1010:
  2031                           	
  2032  022D                     l30002393:	
  2033                           	line	90
  2034                           ;routines.c: 85: }
  2035                           ;routines.c: 90: for(index = 0;index<5;index++){
  2036  022D  3000               	movlw	low(0)
  2037  022E  1283               	bcf	status, 5	;RP0=0, select bank0
  2038  022F  1303               	bcf	status, 6	;RP1=0, select bank0
  2039  0230  00A1               	movwf	(odesliData1@index)
  2040  0231  3000               	movlw	high(0)
  2041  0232  00A2               	movwf	((odesliData1@index))+1
  2042                           	
  2043  0233                     l84:	
  2044                           	line	91
  2045  0233  1683               	bsf	status, 5	;RP0=1, select bank1
  2046  0234  1303               	bcf	status, 6	;RP1=0, select bank1
  2047  0235  1C98               	btfss	(1217/8)^080h,(1217)&7
  2048  0236  2A38               	goto	u1021
  2049  0237  2A39               	goto	u1020
  2050  0238                     u1021:
  2051  0238  2A33               	goto	l84
  2052  0239                     u1020:
  2053                           	
  2054  0239                     l30002395:	
  2055                           	line	92
  2056                           ;routines.c: 92: TXREG = 0xff;
  2057  0239  30FF               	movlw	(0FFh)
  2058  023A  1283               	bcf	status, 5	;RP0=0, select bank0
  2059  023B  1303               	bcf	status, 6	;RP1=0, select bank0
  2060  023C  0099               	movwf	(25)	;volatile
  2061                           	line	90
  2062  023D  3001               	movlw	low(01h)
  2063  023E  07A1               	addwf	(odesliData1@index),f
  2064  023F  1803               	skipnc
  2065  0240  0AA2               	incf	(odesliData1@index+1),f
  2066  0241  3000               	movlw	high(01h)
  2067  0242  07A2               	addwf	(odesliData1@index+1),f
  2068  0243  0822               	movf	(odesliData1@index+1),w
  2069  0244  3A80               	xorlw	80h
  2070  0245  00F6               	movwf	(??_odesliData1+0+0)
  2071  0246  3080               	movlw	(high(05h))^80h
  2072  0247  0276               	subwf	(??_odesliData1+0+0),w
  2073  0248  1D03               	skipz
  2074  0249  2A4C               	goto	u1035
  2075  024A  3005               	movlw	low(05h)
  2076  024B  0221               	subwf	(odesliData1@index),w
  2077  024C                     u1035:
  2078                           
  2079  024C  1C03               	skipc
  2080  024D  2A4F               	goto	u1031
  2081  024E  2A50               	goto	u1030
  2082  024F                     u1031:
  2083  024F  2A33               	goto	l84
  2084  0250                     u1030:
  2085                           	
  2086  0250                     l73:	
  2087  0250  0008               	return
  2088                           	opt stack 0
  2089                           GLOBAL	__end_of_odesliData1
  2090  0251                     	__end_of_odesliData1:
  2091                           ; =============== function _odesliData1 ends ============
  2092                           
  2093                           psect	text182,local,class=CODE,delta=2
  2094                           global __ptext182
  2095  03E0                     __ptext182:
  2096                           	line	94
  2097                           	signat	_odesliData1,8312
  2098                           	global	_DELAY_TIMER1_15uS
  2099                           
  2100                           ; *************** function _DELAY_TIMER1_15uS *****************
  2101                           ; Defined at:
  2102                           ;		line 92 in file "delay.c"
  2103                           ; Parameters:    Size  Location     Type
  2104                           ;		None
  2105                           ; Auto vars:     Size  Location     Type
  2106                           ;		None
  2107                           ; Return value:  Size  Location     Type
  2108                           ;		None               void
  2109                           ; Registers used:
  2110                           ;		wreg
  2111                           ; Tracked objects:
  2112                           ;		On entry : 0/0
  2113                           ;		On exit  : 0/0
  2114                           ;		Unchanged: 0/0
  2115                           ; Data sizes:     COMMON   BANK0   BANK1   BANK3   BANK2
  2116                           ;      Locals:         0       0       0       0       0
  2117                           ;      Temp:     0
  2118                           ;      Total:    0
  2119                           ; This function calls:
  2120                           ;		Nothing
  2121                           ; This function is called by:
  2122                           ;		_GET_SONAR_DATA
  2123                           ;		_ANALOG_READ
  2124                           ; This function uses a non-reentrant model
  2125                           ; 
  2126                           psect	text182
  2127                           	file	"delay.c"
  2128                           	line	92
  2129                           	global	__size_of_DELAY_TIMER1_15uS
  2130  0016                     	__size_of_DELAY_TIMER1_15uS	equ	__end_of_DELAY_TIMER1_15uS-_DELAY_TIMER1_15uS
  2131                           ;delay.c: 92: void DELAY_TIMER1_15uS(void){
  2132                           	
  2133  03E0                     _DELAY_TIMER1_15uS:	
  2134                           	opt stack 1
  2135                           ; Regs used in _DELAY_TIMER1_15uS: [wreg]
  2136                           	line	94
  2137                           	
  2138  03E0                     l30002353:	
  2139                           ;delay.c: 94: TMR1H = 0xff;
  2140  03E0  30FF               	movlw	(0FFh)
  2141  03E1  1283               	bcf	status, 5	;RP0=0, select bank0
  2142  03E2  1303               	bcf	status, 6	;RP1=0, select bank0
  2143  03E3  008F               	movwf	(15)	;volatile
  2144                           	line	95
  2145                           ;delay.c: 95: TMR1L = 0xfe;
  2146  03E4  30FE               	movlw	(0FEh)
  2147  03E5  008E               	movwf	(14)	;volatile
  2148                           	
  2149  03E6                     l30002354:	
  2150                           	line	96
  2151                           ;delay.c: 96: TMR1IF = 0;
  2152  03E6  100C               	bcf	(96/8),(96)&7
  2153                           	line	98
  2154                           ;delay.c: 98: T1CON = 0x20;
  2155  03E7  3020               	movlw	(020h)
  2156  03E8  0090               	movwf	(16)	;volatile
  2157                           	
  2158  03E9                     l30002355:	
  2159                           	line	100
  2160                           ;delay.c: 100: TMR1ON = 1;
  2161  03E9  1410               	bsf	(128/8),(128)&7
  2162                           	
  2163  03EA                     l22:	
  2164                           	line	101
  2165  03EA  1C0C               	btfss	(96/8),(96)&7
  2166  03EB  2BED               	goto	u931
  2167  03EC  2BEE               	goto	u930
  2168  03ED                     u931:
  2169  03ED  2BEA               	goto	l22
  2170  03EE                     u930:
  2171                           	
  2172  03EE                     l24:	
  2173                           	line	102
  2174                           ;delay.c: 102: TMR1ON = 0;
  2175  03EE  1010               	bcf	(128/8),(128)&7
  2176                           	line	104
  2177                           # 104 "delay.c"
  2178  03EF  0000               NOP ;#
  2179                           	line	105
  2180                           # 105 "delay.c"
  2181  03F0  0000               NOP ;#
  2182                           	line	106
  2183                           # 106 "delay.c"
  2184  03F1  0000               NOP ;#
  2185                           	line	107
  2186                           # 107 "delay.c"
  2187  03F2  0000               NOP ;#
  2188                           	line	108
  2189                           # 108 "delay.c"
  2190  03F3  0000               NOP ;#
  2191                           	line	109
  2192                           # 109 "delay.c"
  2193  03F4  0000               NOP ;#
  2194                           psect	text182
  2195                           	
  2196  03F5                     l21:	
  2197  03F5  0008               	return
  2198                           	opt stack 0
  2199                           GLOBAL	__end_of_DELAY_TIMER1_15uS
  2200  03F6                     	__end_of_DELAY_TIMER1_15uS:
  2201                           ; =============== function _DELAY_TIMER1_15uS ends ============
  2202                           
  2203                           psect	text183,local,class=CODE,delta=2
  2204                           global __ptext183
  2205  041C                     __ptext183:
  2206                           	line	110
  2207                           	signat	_DELAY_TIMER1_15uS,88
  2208                           	global	_DELAY_TIMER1_50mS
  2209                           
  2210                           ; *************** function _DELAY_TIMER1_50mS *****************
  2211                           ; Defined at:
  2212                           ;		line 56 in file "delay.c"
  2213                           ; Parameters:    Size  Location     Type
  2214                           ;		None
  2215                           ; Auto vars:     Size  Location     Type
  2216                           ;		None
  2217                           ; Return value:  Size  Location     Type
  2218                           ;		None               void
  2219                           ; Registers used:
  2220                           ;		wreg
  2221                           ; Tracked objects:
  2222                           ;		On entry : 0/0
  2223                           ;		On exit  : 0/0
  2224                           ;		Unchanged: 0/0
  2225                           ; Data sizes:     COMMON   BANK0   BANK1   BANK3   BANK2
  2226                           ;      Locals:         0       0       0       0       0
  2227                           ;      Temp:     0
  2228                           ;      Total:    0
  2229                           ; This function calls:
  2230                           ;		Nothing
  2231                           ; This function is called by:
  2232                           ;		_GET_SONAR_DATA
  2233                           ; This function uses a non-reentrant model
  2234                           ; 
  2235                           psect	text183
  2236                           	file	"delay.c"
  2237                           	line	56
  2238                           	global	__size_of_DELAY_TIMER1_50mS
  2239  0010                     	__size_of_DELAY_TIMER1_50mS	equ	__end_of_DELAY_TIMER1_50mS-_DELAY_TIMER1_50mS
  2240                           ;delay.c: 56: void DELAY_TIMER1_50mS(void){
  2241                           	
  2242  041C                     _DELAY_TIMER1_50mS:	
  2243                           	opt stack 1
  2244                           ; Regs used in _DELAY_TIMER1_50mS: [wreg]
  2245                           	line	58
  2246                           	
  2247  041C                     l30002386:	
  2248                           ;delay.c: 58: TMR1H = 0xc4;
  2249  041C  30C4               	movlw	(0C4h)
  2250  041D  1283               	bcf	status, 5	;RP0=0, select bank0
  2251  041E  1303               	bcf	status, 6	;RP1=0, select bank0
  2252  041F  008F               	movwf	(15)	;volatile
  2253                           	line	59
  2254                           ;delay.c: 59: TMR1L = 0x03;
  2255  0420  3003               	movlw	(03h)
  2256  0421  008E               	movwf	(14)	;volatile
  2257                           	
  2258  0422                     l30002387:	
  2259                           	line	60
  2260                           ;delay.c: 60: TMR1IF = 0;
  2261  0422  100C               	bcf	(96/8),(96)&7
  2262                           	line	62
  2263                           ;delay.c: 62: T1CON = 0x30;
  2264  0423  3030               	movlw	(030h)
  2265  0424  0090               	movwf	(16)	;volatile
  2266                           	
  2267  0425                     l30002388:	
  2268                           	line	64
  2269                           ;delay.c: 64: TMR1ON = 1;
  2270  0425  1410               	bsf	(128/8),(128)&7
  2271                           	
  2272  0426                     l6:	
  2273                           	line	65
  2274  0426  1C0C               	btfss	(96/8),(96)&7
  2275  0427  2C29               	goto	u991
  2276  0428  2C2A               	goto	u990
  2277  0429                     u991:
  2278  0429  2C26               	goto	l6
  2279  042A                     u990:
  2280                           	
  2281  042A                     l8:	
  2282                           	line	66
  2283                           ;delay.c: 66: TMR1ON = 0;
  2284  042A  1010               	bcf	(128/8),(128)&7
  2285                           	
  2286  042B                     l5:	
  2287  042B  0008               	return
  2288                           	opt stack 0
  2289                           GLOBAL	__end_of_DELAY_TIMER1_50mS
  2290  042C                     	__end_of_DELAY_TIMER1_50mS:
  2291                           ; =============== function _DELAY_TIMER1_50mS ends ============
  2292                           
  2293                           psect	text184,local,class=CODE,delta=2
  2294                           global __ptext184
  2295  032F                     __ptext184:
  2296                           	line	68
  2297                           	signat	_DELAY_TIMER1_50mS,88
  2298                           	global	_isr
  2299                           
  2300                           ; *************** function _isr *****************
  2301                           ; Defined at:
  2302                           ;		line 139 in file "main.c"
  2303                           ; Parameters:    Size  Location     Type
  2304                           ;		None
  2305                           ; Auto vars:     Size  Location     Type
  2306                           ;  prijata_data    1   15[BANK1 ] unsigned char 
  2307                           ;  rubbish         1    0        unsigned char 
  2308                           ; Return value:  Size  Location     Type
  2309                           ;		None               void
  2310                           ; Registers used:
  2311                           ;		wreg, status,2, status,0, pclath, cstack
  2312                           ; Tracked objects:
  2313                           ;		On entry : 0/0
  2314                           ;		On exit  : 0/0
  2315                           ;		Unchanged: 0/0
  2316                           ; Data sizes:     COMMON   BANK0   BANK1   BANK3   BANK2
  2317                           ;      Locals:         0       4       2       0       0
  2318                           ;      Temp:     4
  2319                           ;      Total:    6
  2320                           ; This function calls:
  2321                           ;		_read_data
  2322                           ;		_BLUETOOTH_RESTART
  2323                           ; This function is called by:
  2324                           ;		Interrupt level 1
  2325                           ; This function uses a non-reentrant model
  2326                           ; 
  2327                           psect	text184
  2328                           	file	"main.c"
  2329                           	line	139
  2330                           	global	__size_of_isr
  2331  002C                     	__size_of_isr	equ	__end_of_isr-_isr
  2332                           ;main.c: 139: void interrupt isr(){
  2333                           	
  2334  032F                     _isr:	
  2335                           	opt stack 6
  2336                           ; Regs used in _isr: [wreg+status,2+status,0+pclath+cstack]
  2337                           psect	intentry,class=CODE,delta=2
  2338                           global __pintentry
  2339  0004                     __pintentry:
  2340                           global interrupt_function
  2341  0004                     interrupt_function:
  2342                           	global saved_w
  2343  007F                     	saved_w	set	btemp+1
  2344  0004  00FF               	movwf	saved_w
  2345  0005  0803               	movf	status,w
  2346  0006  1283               	bcf	status, 5	;RP0=0, select bank0
  2347  0007  1303               	bcf	status, 6	;RP1=0, select bank0
  2348  0008  00BB               	movwf	(??_isr+0)
  2349  0009  0804               	movf	fsr0,w
  2350  000A  00BC               	movwf	(??_isr+1)
  2351  000B  080A               	movf	pclath,w
  2352  000C  00BD               	movwf	(??_isr+2)
  2353  000D  087E               	movf	btemp+0,w
  2354  000E  00BE               	movwf	(??_isr+3)
  2355  000F  120A  118A  2B2F   	ljmp	_isr
  2356                           psect	text184
  2357                           	line	143
  2358                           	
  2359  032F                     i1l30002428:	
  2360                           ;main.c: 143: if(RCIF){
  2361  032F  1E8C               	btfss	(101/8),(101)&7
  2362  0330  2B32               	goto	u121_21
  2363  0331  2B33               	goto	u121_20
  2364  0332                     u121_21:
  2365  0332  2B4E               	goto	i1l62
  2366  0333                     u121_20:
  2367                           	
  2368  0333                     i1l30002429:	
  2369                           	line	148
  2370                           ;main.c: 148: if(!OERR){
  2371  0333  1898               	btfsc	(193/8),(193)&7
  2372  0334  2B36               	goto	u122_21
  2373  0335  2B37               	goto	u122_20
  2374  0336                     u122_21:
  2375  0336  2B49               	goto	i1l30002434
  2376  0337                     u122_20:
  2377                           	
  2378  0337                     i1l30002430:	
  2379                           	line	159
  2380                           ;main.c: 159: if(!FERR){
  2381  0337  1918               	btfsc	(194/8),(194)&7
  2382  0338  2B3A               	goto	u123_21
  2383  0339  2B3B               	goto	u123_20
  2384  033A                     u123_21:
  2385  033A  2B45               	goto	i1l30002433
  2386  033B                     u123_20:
  2387                           	
  2388  033B                     i1l30002431:	
  2389                           	line	161
  2390                           ;main.c: 160: unsigned char prijata_data;
  2391                           ;main.c: 161: prijata_data = RCREG;
  2392  033B  081A               	movf	(26),w	;volatile
  2393  033C  1683               	bsf	status, 5	;RP0=1, select bank1
  2394  033D  1303               	bcf	status, 6	;RP1=0, select bank1
  2395  033E  00AF               	movwf	(isr@prijata_data)^080h
  2396                           	
  2397  033F                     i1l30002432:	
  2398                           	line	167
  2399                           ;main.c: 167: read_data(prijata_data);
  2400  033F  082F               	movf	(isr@prijata_data)^080h,w
  2401  0340  120A  118A  2015   	fcall	_read_data
              120A  118A         
  2402                           	
  2403  0345                     i1l30002433:	
  2404                           	line	182
  2405  0345  1283               	bcf	status, 5	;RP0=0, select bank0
  2406  0346  1303               	bcf	status, 6	;RP1=0, select bank0
  2407  0347  081A               	movf	(26),w	;volatile
  2408  0348  2B4E               	goto	i1l62
  2409                           	
  2410  0349                     i1l30002434:	
  2411                           	line	189
  2412                           ;main.c: 185: else{
  2413                           ;main.c: 189: BLUETOOTH_RESTART();
  2414  0349  120A  118A  242C   	fcall	_BLUETOOTH_RESTART
              120A  118A         
  2415                           	
  2416  034E                     i1l62:	
  2417  034E  1283               	bcf	status, 5	;RP0=0, select bank0
  2418  034F  1303               	bcf	status, 6	;RP1=0, select bank0
  2419  0350  083E               	movf	(??_isr+3),w
  2420  0351  00FE               	movwf	btemp+0
  2421  0352  083D               	movf	(??_isr+2),w
  2422  0353  008A               	movwf	pclath
  2423  0354  083C               	movf	(??_isr+1),w
  2424  0355  0084               	movwf	fsr0
  2425  0356  083B               	movf	(??_isr+0),w
  2426  0357  0083               	movwf	status
  2427  0358  0EFF               	swapf	saved_w,f
  2428  0359  0E7F               	swapf	saved_w,w
  2429  035A  0009               	retfie
  2430                           	opt stack 0
  2431                           GLOBAL	__end_of_isr
  2432  035B                     	__end_of_isr:
  2433                           ; =============== function _isr ends ============
  2434                           
  2435                           psect	text185,local,class=CODE,delta=2
  2436                           global __ptext185
  2437  042C                     __ptext185:
  2438                           	line	192
  2439                           	signat	_isr,88
  2440                           	global	_BLUETOOTH_RESTART
  2441                           
  2442                           ; *************** function _BLUETOOTH_RESTART *****************
  2443                           ; Defined at:
  2444                           ;		line 5 in file "bluetooth_modul.c"
  2445                           ; Parameters:    Size  Location     Type
  2446                           ;		None
  2447                           ; Auto vars:     Size  Location     Type
  2448                           ;		None
  2449                           ; Return value:  Size  Location     Type
  2450                           ;		None               void
  2451                           ; Registers used:
  2452                           ;		wreg, status,2, status,0, pclath, cstack
  2453                           ; Tracked objects:
  2454                           ;		On entry : 0/0
  2455                           ;		On exit  : 0/0
  2456                           ;		Unchanged: 0/0
  2457                           ; Data sizes:     COMMON   BANK0   BANK1   BANK3   BANK2
  2458                           ;      Locals:         0       0       0       0       0
  2459                           ;      Temp:     0
  2460                           ;      Total:    0
  2461                           ; This function calls:
  2462                           ;		i1_DELAY_TIMER1_15uS
  2463                           ; This function is called by:
  2464                           ;		_isr
  2465                           ; This function uses a non-reentrant model
  2466                           ; 
  2467                           psect	text185
  2468                           	file	"bluetooth_modul.c"
  2469                           	line	5
  2470                           	global	__size_of_BLUETOOTH_RESTART
  2471  000E                     	__size_of_BLUETOOTH_RESTART	equ	__end_of_BLUETOOTH_RESTART-_BLUETOOTH_RESTART
  2472                           ;bluetooth_modul.c: 5: void BLUETOOTH_RESTART(void){
  2473                           	
  2474  042C                     _BLUETOOTH_RESTART:	
  2475                           	opt stack 5
  2476                           ; Regs used in _BLUETOOTH_RESTART: [wreg+status,2+status,0+pclath+cstack]
  2477                           	line	7
  2478                           	
  2479  042C                     i1l30002467:	
  2480                           ;bluetooth_modul.c: 7: SPEN = 0;
  2481  042C  1283               	bcf	status, 5	;RP0=0, select bank0
  2482  042D  1303               	bcf	status, 6	;RP1=0, select bank0
  2483  042E  1398               	bcf	(199/8),(199)&7
  2484                           	line	8
  2485                           ;bluetooth_modul.c: 8: CREN = 0;
  2486  042F  1218               	bcf	(196/8),(196)&7
  2487                           	
  2488  0430                     i1l30002468:	
  2489                           	line	10
  2490                           ;bluetooth_modul.c: 10: DELAY_TIMER1_15uS();
  2491  0430  120A  118A  23F6   	fcall	i1_DELAY_TIMER1_15uS
              120A  118A         
  2492                           	
  2493  0435                     i1l30002469:	
  2494                           	line	12
  2495                           ;bluetooth_modul.c: 12: SPEN = 1;
  2496  0435  1283               	bcf	status, 5	;RP0=0, select bank0
  2497  0436  1303               	bcf	status, 6	;RP1=0, select bank0
  2498  0437  1798               	bsf	(199/8),(199)&7
  2499                           	
  2500  0438                     i1l30002470:	
  2501                           	line	13
  2502                           ;bluetooth_modul.c: 13: CREN = 1;
  2503  0438  1618               	bsf	(196/8),(196)&7
  2504                           	
  2505  0439                     i1l33:	
  2506  0439  0008               	return
  2507                           	opt stack 0
  2508                           GLOBAL	__end_of_BLUETOOTH_RESTART
  2509  043A                     	__end_of_BLUETOOTH_RESTART:
  2510                           ; =============== function _BLUETOOTH_RESTART ends ============
  2511                           
  2512                           psect	text186,local,class=CODE,delta=2
  2513                           global __ptext186
  2514  0015                     __ptext186:
  2515                           	line	14
  2516                           	signat	_BLUETOOTH_RESTART,88
  2517                           	global	_read_data
  2518                           
  2519                           ; *************** function _read_data *****************
  2520                           ; Defined at:
  2521                           ;		line 32 in file "main.c"
  2522                           ; Parameters:    Size  Location     Type
  2523                           ;  prijata_data    1    wreg     unsigned char 
  2524                           ; Auto vars:     Size  Location     Type
  2525                           ;  prijata_data    1   13[BANK1 ] unsigned char 
  2526                           ;  speed           2    5[BANK1 ] unsigned int 
  2527                           ;  dir             1    7[BANK1 ] unsigned char 
  2528                           ;  speed           2    3[BANK1 ] unsigned int 
  2529                           ;  dir             1    8[BANK1 ] unsigned char 
  2530                           ; Return value:  Size  Location     Type
  2531                           ;		None               void
  2532                           ; Registers used:
  2533                           ;		wreg, status,2, status,0, pclath, cstack
  2534                           ; Tracked objects:
  2535                           ;		On entry : 0/0
  2536                           ;		On exit  : 0/0
  2537                           ;		Unchanged: 0/0
  2538                           ; Data sizes:     COMMON   BANK0   BANK1   BANK3   BANK2
  2539                           ;      Locals:         0       3      11       0       0
  2540                           ;      Temp:     3
  2541                           ;      Total:   14
  2542                           ; This function calls:
  2543                           ;		___wmul
  2544                           ;		_LEFT_ENGINE_UPDATE
  2545                           ;		_RIGHT_ENGINE_UPDATE
  2546                           ; This function is called by:
  2547                           ;		_isr
  2548                           ; This function uses a non-reentrant model
  2549                           ; 
  2550                           psect	text186
  2551                           	file	"main.c"
  2552                           	line	32
  2553                           	global	__size_of_read_data
  2554  011E                     	__size_of_read_data	equ	__end_of_read_data-_read_data
  2555                           ;main.c: 16: asm("\tpsect config,class=CONFIG,delta=2"); asm("\tdw ""0x3f32");
  2556                           ;main.c: 18: bank1 struct sonarModul SONAR = {0, 0};
  2557                           ;main.c: 19: bank1 struct anModul VOLTMETER = {0, 0};
  2558                           ;main.c: 21: unsigned char UPDATE_COUNT = 0;
  2559                           ;main.c: 22: unsigned char UPDATE_VOLTMETER = 0;
  2560                           ;main.c: 23: unsigned char UPDATE_SONAR = 0;
  2561                           ;main.c: 27: unsigned char beforeButtonStates;
  2562                           ;main.c: 28: unsigned char currenButtonStates;
  2563                           ;main.c: 30: void read_data(unsigned char);
  2564                           ;main.c: 32: void read_data(unsigned char prijata_data){
  2565                           	
  2566  0015                     _read_data:	
  2567                           	opt stack 5
  2568                           ; Regs used in _read_data: [wreg+status,2+status,0+pclath+cstack]
  2569                           ;read_data@prijata_data stored from wreg
  2570                           	line	38
  2571  0015  1683               	bsf	status, 5	;RP0=1, select bank1
  2572  0016  1303               	bcf	status, 6	;RP1=0, select bank1
  2573  0017  00AD               	movwf	(read_data@prijata_data)^080h
  2574                           	
  2575  0018                     i1l30002413:	
  2576                           ;main.c: 38: if((prijata_data & 0b00000011) == 0x00){
  2577  0018  082D               	movf	(read_data@prijata_data)^080h,w
  2578  0019  3903               	andlw	03h
  2579  001A  1D03               	btfss	status,2
  2580  001B  281D               	goto	u108_21
  2581  001C  281E               	goto	u108_20
  2582  001D                     u108_21:
  2583  001D  2860               	goto	i1l30002416
  2584  001E                     u108_20:
  2585                           	
  2586  001E                     i1l30002414:	
  2587                           	line	40
  2588                           ;main.c: 40: RD4 = !((prijata_data >> 2) & 0b00000001);
  2589  001E  082D               	movf	(read_data@prijata_data)^080h,w
  2590  001F  1283               	bcf	status, 5	;RP0=0, select bank0
  2591  0020  1303               	bcf	status, 6	;RP1=0, select bank0
  2592  0021  00B8               	movwf	(??_read_data+0+0)
  2593  0022  3002               	movlw	02h
  2594  0023                     u109_25:
  2595  0023  1003               	clrc
  2596  0024  0CB8               	rrf	(??_read_data+0+0),f
  2597  0025  3EFF               	addlw	-1
  2598  0026  1D03               	skipz
  2599  0027  2823               	goto	u109_25
  2600  0028  1C38               	btfss	0+(??_read_data+0+0),(0)&7
  2601  0029  282B               	goto	u110_21
  2602  002A  282F               	goto	u110_20
  2603                           	
  2604  002B                     u110_21:
  2605  002B  1283               	bcf	status, 5	;RP0=0, select bank0
  2606  002C  1303               	bcf	status, 6	;RP1=0, select bank0
  2607  002D  1608               	bsf	(68/8),(68)&7
  2608  002E  2832               	goto	u111_24
  2609  002F                     u110_20:
  2610  002F  1283               	bcf	status, 5	;RP0=0, select bank0
  2611  0030  1303               	bcf	status, 6	;RP1=0, select bank0
  2612  0031  1208               	bcf	(68/8),(68)&7
  2613  0032                     u111_24:
  2614                           	line	43
  2615                           ;main.c: 43: UPDATE_VOLTMETER = ((prijata_data >> 3) & 0b00000001);
  2616  0032  1683               	bsf	status, 5	;RP0=1, select bank1
  2617  0033  1303               	bcf	status, 6	;RP1=0, select bank1
  2618  0034  082D               	movf	(read_data@prijata_data)^080h,w
  2619  0035  1283               	bcf	status, 5	;RP0=0, select bank0
  2620  0036  1303               	bcf	status, 6	;RP1=0, select bank0
  2621  0037  00B8               	movwf	(??_read_data+0+0)
  2622  0038  3003               	movlw	03h
  2623  0039                     u112_25:
  2624  0039  1003               	clrc
  2625  003A  0CB8               	rrf	(??_read_data+0+0),f
  2626  003B  3EFF               	addlw	-1
  2627  003C  1D03               	skipz
  2628  003D  2839               	goto	u112_25
  2629  003E  0838               	movf	0+(??_read_data+0+0),w
  2630  003F  3901               	andlw	01h
  2631  0040  00F4               	movwf	(_UPDATE_VOLTMETER)
  2632                           	line	46
  2633                           ;main.c: 46: UPDATE_SONAR = ((prijata_data >> 4) & 0b00000001);
  2634  0041  1683               	bsf	status, 5	;RP0=1, select bank1
  2635  0042  1303               	bcf	status, 6	;RP1=0, select bank1
  2636  0043  082D               	movf	(read_data@prijata_data)^080h,w
  2637  0044  1283               	bcf	status, 5	;RP0=0, select bank0
  2638  0045  1303               	bcf	status, 6	;RP1=0, select bank0
  2639  0046  00B8               	movwf	(??_read_data+0+0)
  2640  0047  3004               	movlw	04h
  2641  0048                     u113_25:
  2642  0048  1003               	clrc
  2643  0049  0CB8               	rrf	(??_read_data+0+0),f
  2644  004A  3EFF               	addlw	-1
  2645  004B  1D03               	skipz
  2646  004C  2848               	goto	u113_25
  2647  004D  0838               	movf	0+(??_read_data+0+0),w
  2648  004E  3901               	andlw	01h
  2649  004F  00F3               	movwf	(_UPDATE_SONAR)
  2650                           	line	50
  2651                           ;main.c: 50: UPDATE_COUNT = ((prijata_data >> 5) & 0b00000111);
  2652  0050  1683               	bsf	status, 5	;RP0=1, select bank1
  2653  0051  1303               	bcf	status, 6	;RP1=0, select bank1
  2654  0052  082D               	movf	(read_data@prijata_data)^080h,w
  2655  0053  1283               	bcf	status, 5	;RP0=0, select bank0
  2656  0054  1303               	bcf	status, 6	;RP1=0, select bank0
  2657  0055  00B8               	movwf	(??_read_data+0+0)
  2658  0056  3005               	movlw	05h
  2659  0057                     u114_25:
  2660  0057  1003               	clrc
  2661  0058  0CB8               	rrf	(??_read_data+0+0),f
  2662  0059  3EFF               	addlw	-1
  2663  005A  1D03               	skipz
  2664  005B  2857               	goto	u114_25
  2665  005C  0838               	movf	0+(??_read_data+0+0),w
  2666  005D  3907               	andlw	07h
  2667  005E  00C4               	movwf	(_UPDATE_COUNT)
  2668  005F  2932               	goto	i1l52
  2669                           	
  2670  0060                     i1l30002416:	
  2671                           	line	59
  2672                           ;main.c: 53: }
  2673                           ;main.c: 59: if((prijata_data & 0b00000011) == 0x01){
  2674  0060  082D               	movf	(read_data@prijata_data)^080h,w
  2675  0061  3903               	andlw	03h
  2676  0062  3A01               	xorlw	01h
  2677  0063  1D03               	skipz
  2678  0064  2866               	goto	u115_21
  2679  0065  2867               	goto	u115_20
  2680  0066                     u115_21:
  2681  0066  28C8               	goto	i1l30002422
  2682  0067                     u115_20:
  2683                           	
  2684  0067                     i1l30002417:	
  2685                           	line	61
  2686                           ;main.c: 61: unsigned char dir = ((prijata_data & 0b00000100) == 4) ? L_MOTOR_BACK : L_M
                                 OTOR_FORW;
  2687  0067  0870               	movf	(_L_MOTOR_FORW),w
  2688  0068  1283               	bcf	status, 5	;RP0=0, select bank0
  2689  0069  1303               	bcf	status, 6	;RP1=0, select bank0
  2690  006A  00B8               	movwf	(??_read_data+0+0)
  2691  006B  01B9               	clrf	(??_read_data+0+0+1)
  2692  006C  0838               	movf	0+(??_read_data+0+0),w
  2693  006D  1683               	bsf	status, 5	;RP0=1, select bank1
  2694  006E  1303               	bcf	status, 6	;RP1=0, select bank1
  2695  006F  00AB               	movwf	(_read_data$1794)^080h
  2696  0070  1283               	bcf	status, 5	;RP0=0, select bank0
  2697  0071  1303               	bcf	status, 6	;RP1=0, select bank0
  2698  0072  0839               	movf	1+(??_read_data+0+0),w
  2699  0073  1683               	bsf	status, 5	;RP0=1, select bank1
  2700  0074  1303               	bcf	status, 6	;RP1=0, select bank1
  2701  0075  00AC               	movwf	(_read_data$1794+1)^080h
  2702                           	
  2703  0076                     i1l30002418:	
  2704  0076  1D2D               	btfss	(read_data@prijata_data)^080h,(2)&7
  2705  0077  2879               	goto	u116_21
  2706  0078  287A               	goto	u116_20
  2707  0079                     u116_21:
  2708  0079  2889               	goto	i1l500001720
  2709  007A                     u116_20:
  2710                           	
  2711  007A                     i1l30002419:	
  2712  007A  1283               	bcf	status, 5	;RP0=0, select bank0
  2713  007B  1303               	bcf	status, 6	;RP1=0, select bank0
  2714  007C  0855               	movf	(_L_MOTOR_BACK),w
  2715  007D  00B8               	movwf	(??_read_data+0+0)
  2716  007E  01B9               	clrf	(??_read_data+0+0+1)
  2717  007F  0838               	movf	0+(??_read_data+0+0),w
  2718  0080  1683               	bsf	status, 5	;RP0=1, select bank1
  2719  0081  1303               	bcf	status, 6	;RP1=0, select bank1
  2720  0082  00AB               	movwf	(_read_data$1794)^080h
  2721  0083  1283               	bcf	status, 5	;RP0=0, select bank0
  2722  0084  1303               	bcf	status, 6	;RP1=0, select bank0
  2723  0085  0839               	movf	1+(??_read_data+0+0),w
  2724  0086  1683               	bsf	status, 5	;RP0=1, select bank1
  2725  0087  1303               	bcf	status, 6	;RP1=0, select bank1
  2726  0088  00AC               	movwf	(_read_data$1794+1)^080h
  2727                           	
  2728  0089                     i1l500001720:	
  2729  0089  082B               	movf	(_read_data$1794)^080h,w
  2730  008A  00A8               	movwf	(read_data@dir)^080h
  2731                           	
  2732  008B                     i1l30002420:	
  2733                           	line	62
  2734                           ;main.c: 62: unsigned int speed = ((prijata_data & 0b11111000) >> 3) * 33;
  2735  008B  082D               	movf	(read_data@prijata_data)^080h,w
  2736  008C  1283               	bcf	status, 5	;RP0=0, select bank0
  2737  008D  1303               	bcf	status, 6	;RP1=0, select bank0
  2738  008E  00B8               	movwf	(??_read_data+0+0)
  2739  008F  3003               	movlw	03h
  2740  0090                     u117_25:
  2741  0090  1003               	clrc
  2742  0091  0CB8               	rrf	(??_read_data+0+0),f
  2743  0092  3EFF               	addlw	-1
  2744  0093  1D03               	skipz
  2745  0094  2890               	goto	u117_25
  2746  0095  0838               	movf	0+(??_read_data+0+0),w
  2747  0096  391F               	andlw	01Fh
  2748  0097  00B9               	movwf	(??_read_data+1+0)
  2749  0098  01BA               	clrf	(??_read_data+1+0+1)
  2750  0099  0839               	movf	0+(??_read_data+1+0),w
  2751  009A  00B0               	movwf	(?___wmul)
  2752  009B  083A               	movf	1+(??_read_data+1+0),w
  2753  009C  00B1               	movwf	(?___wmul+1)
  2754  009D  3021               	movlw	low(021h)
  2755  009E  00B2               	movwf	0+(?___wmul)+02h
  2756  009F  3000               	movlw	high(021h)
  2757  00A0  00B3               	movwf	(0+(?___wmul)+02h)+1
  2758  00A1  120A  118A  235B   	fcall	___wmul
              120A  118A         
  2759  00A6  1383               	bcf	status, 7	;select IRP bank0
  2760  00A7  1283               	bcf	status, 5	;RP0=0, select bank0
  2761  00A8  1303               	bcf	status, 6	;RP1=0, select bank0
  2762  00A9  0831               	movf	(1+(?___wmul)),w
  2763  00AA  1683               	bsf	status, 5	;RP0=1, select bank1
  2764  00AB  1303               	bcf	status, 6	;RP1=0, select bank1
  2765  00AC  01A4               	clrf	(read_data@speed+1)^080h
  2766  00AD  07A4               	addwf	(read_data@speed+1)^080h
  2767  00AE  1283               	bcf	status, 5	;RP0=0, select bank0
  2768  00AF  1303               	bcf	status, 6	;RP1=0, select bank0
  2769  00B0  0830               	movf	(0+(?___wmul)),w
  2770  00B1  1683               	bsf	status, 5	;RP0=1, select bank1
  2771  00B2  1303               	bcf	status, 6	;RP1=0, select bank1
  2772  00B3  01A3               	clrf	(read_data@speed)^080h
  2773  00B4  07A3               	addwf	(read_data@speed)^080h
  2774                           
  2775                           	
  2776  00B5                     i1l30002421:	
  2777                           	line	64
  2778                           ;main.c: 64: LEFT_ENGINE_UPDATE(speed, dir);
  2779  00B5  0824               	movf	(read_data@speed+1)^080h,w
  2780  00B6  01A1               	clrf	(?_LEFT_ENGINE_UPDATE+1)^080h
  2781  00B7  07A1               	addwf	(?_LEFT_ENGINE_UPDATE+1)^080h
  2782  00B8  0823               	movf	(read_data@speed)^080h,w
  2783  00B9  01A0               	clrf	(?_LEFT_ENGINE_UPDATE)^080h
  2784  00BA  07A0               	addwf	(?_LEFT_ENGINE_UPDATE)^080h
  2785                           
  2786  00BB  0828               	movf	(read_data@dir)^080h,w
  2787  00BC  1283               	bcf	status, 5	;RP0=0, select bank0
  2788  00BD  1303               	bcf	status, 6	;RP1=0, select bank0
  2789  00BE  00B8               	movwf	(??_read_data+0+0)
  2790  00BF  0838               	movf	(??_read_data+0+0),w
  2791  00C0  1683               	bsf	status, 5	;RP0=1, select bank1
  2792  00C1  1303               	bcf	status, 6	;RP1=0, select bank1
  2793  00C2  00A2               	movwf	0+(?_LEFT_ENGINE_UPDATE)^080h+02h
  2794  00C3  120A  118A  22D3   	fcall	_LEFT_ENGINE_UPDATE
              120A  118A         
  2795                           	
  2796  00C8                     i1l30002422:	
  2797                           	line	71
  2798                           ;main.c: 65: }
  2799                           ;main.c: 71: if((prijata_data & 0b00000011) == 0x02){
  2800  00C8  1683               	bsf	status, 5	;RP0=1, select bank1
  2801  00C9  1303               	bcf	status, 6	;RP1=0, select bank1
  2802  00CA  082D               	movf	(read_data@prijata_data)^080h,w
  2803  00CB  3903               	andlw	03h
  2804  00CC  3A02               	xorlw	02h
  2805  00CD  1D03               	skipz
  2806  00CE  28D0               	goto	u118_21
  2807  00CF  28D1               	goto	u118_20
  2808  00D0                     u118_21:
  2809  00D0  2932               	goto	i1l52
  2810  00D1                     u118_20:
  2811                           	
  2812  00D1                     i1l30002423:	
  2813                           	line	73
  2814                           ;main.c: 73: unsigned char dir = ((prijata_data & 0b00000100) == 4) ? R_MOTOR_BACK : R_M
                                 OTOR_FORW;
  2815  00D1  1283               	bcf	status, 5	;RP0=0, select bank0
  2816  00D2  1303               	bcf	status, 6	;RP1=0, select bank0
  2817  00D3  0856               	movf	(_R_MOTOR_FORW),w
  2818  00D4  00B8               	movwf	(??_read_data+0+0)
  2819  00D5  01B9               	clrf	(??_read_data+0+0+1)
  2820  00D6  0838               	movf	0+(??_read_data+0+0),w
  2821  00D7  1683               	bsf	status, 5	;RP0=1, select bank1
  2822  00D8  1303               	bcf	status, 6	;RP1=0, select bank1
  2823  00D9  00A9               	movwf	(_read_data$1797)^080h
  2824  00DA  1283               	bcf	status, 5	;RP0=0, select bank0
  2825  00DB  1303               	bcf	status, 6	;RP1=0, select bank0
  2826  00DC  0839               	movf	1+(??_read_data+0+0),w
  2827  00DD  1683               	bsf	status, 5	;RP0=1, select bank1
  2828  00DE  1303               	bcf	status, 6	;RP1=0, select bank1
  2829  00DF  00AA               	movwf	(_read_data$1797+1)^080h
  2830                           	
  2831  00E0                     i1l30002424:	
  2832  00E0  1D2D               	btfss	(read_data@prijata_data)^080h,(2)&7
  2833  00E1  28E3               	goto	u119_21
  2834  00E2  28E4               	goto	u119_20
  2835  00E3                     u119_21:
  2836  00E3  28F3               	goto	i1l500001721
  2837  00E4                     u119_20:
  2838                           	
  2839  00E4                     i1l30002425:	
  2840  00E4  1283               	bcf	status, 5	;RP0=0, select bank0
  2841  00E5  1303               	bcf	status, 6	;RP1=0, select bank0
  2842  00E6  0843               	movf	(_R_MOTOR_BACK),w
  2843  00E7  00B8               	movwf	(??_read_data+0+0)
  2844  00E8  01B9               	clrf	(??_read_data+0+0+1)
  2845  00E9  0838               	movf	0+(??_read_data+0+0),w
  2846  00EA  1683               	bsf	status, 5	;RP0=1, select bank1
  2847  00EB  1303               	bcf	status, 6	;RP1=0, select bank1
  2848  00EC  00A9               	movwf	(_read_data$1797)^080h
  2849  00ED  1283               	bcf	status, 5	;RP0=0, select bank0
  2850  00EE  1303               	bcf	status, 6	;RP1=0, select bank0
  2851  00EF  0839               	movf	1+(??_read_data+0+0),w
  2852  00F0  1683               	bsf	status, 5	;RP0=1, select bank1
  2853  00F1  1303               	bcf	status, 6	;RP1=0, select bank1
  2854  00F2  00AA               	movwf	(_read_data$1797+1)^080h
  2855                           	
  2856  00F3                     i1l500001721:	
  2857  00F3  0829               	movf	(_read_data$1797)^080h,w
  2858  00F4  00A7               	movwf	(read_data@dir_1796)^080h
  2859                           	
  2860  00F5                     i1l30002426:	
  2861                           	line	74
  2862                           ;main.c: 74: unsigned int speed = ((prijata_data & 0b11111000) >> 3) * 33;
  2863  00F5  082D               	movf	(read_data@prijata_data)^080h,w
  2864  00F6  1283               	bcf	status, 5	;RP0=0, select bank0
  2865  00F7  1303               	bcf	status, 6	;RP1=0, select bank0
  2866  00F8  00B8               	movwf	(??_read_data+0+0)
  2867  00F9  3003               	movlw	03h
  2868  00FA                     u120_25:
  2869  00FA  1003               	clrc
  2870  00FB  0CB8               	rrf	(??_read_data+0+0),f
  2871  00FC  3EFF               	addlw	-1
  2872  00FD  1D03               	skipz
  2873  00FE  28FA               	goto	u120_25
  2874  00FF  0838               	movf	0+(??_read_data+0+0),w
  2875  0100  391F               	andlw	01Fh
  2876  0101  00B9               	movwf	(??_read_data+1+0)
  2877  0102  01BA               	clrf	(??_read_data+1+0+1)
  2878  0103  0839               	movf	0+(??_read_data+1+0),w
  2879  0104  00B0               	movwf	(?___wmul)
  2880  0105  083A               	movf	1+(??_read_data+1+0),w
  2881  0106  00B1               	movwf	(?___wmul+1)
  2882  0107  3021               	movlw	low(021h)
  2883  0108  00B2               	movwf	0+(?___wmul)+02h
  2884  0109  3000               	movlw	high(021h)
  2885  010A  00B3               	movwf	(0+(?___wmul)+02h)+1
  2886  010B  120A  118A  235B   	fcall	___wmul
              120A  118A         
  2887  0110  1383               	bcf	status, 7	;select IRP bank0
  2888  0111  1283               	bcf	status, 5	;RP0=0, select bank0
  2889  0112  1303               	bcf	status, 6	;RP1=0, select bank0
  2890  0113  0831               	movf	(1+(?___wmul)),w
  2891  0114  1683               	bsf	status, 5	;RP0=1, select bank1
  2892  0115  1303               	bcf	status, 6	;RP1=0, select bank1
  2893  0116  01A6               	clrf	(read_data@speed_1798+1)^080h
  2894  0117  07A6               	addwf	(read_data@speed_1798+1)^080h
  2895  0118  1283               	bcf	status, 5	;RP0=0, select bank0
  2896  0119  1303               	bcf	status, 6	;RP1=0, select bank0
  2897  011A  0830               	movf	(0+(?___wmul)),w
  2898  011B  1683               	bsf	status, 5	;RP0=1, select bank1
  2899  011C  1303               	bcf	status, 6	;RP1=0, select bank1
  2900  011D  01A5               	clrf	(read_data@speed_1798)^080h
  2901  011E  07A5               	addwf	(read_data@speed_1798)^080h
  2902                           
  2903                           	
  2904  011F                     i1l30002427:	
  2905                           	line	76
  2906                           ;main.c: 76: RIGHT_ENGINE_UPDATE(speed, dir);
  2907  011F  0826               	movf	(read_data@speed_1798+1)^080h,w
  2908  0120  01A1               	clrf	(?_RIGHT_ENGINE_UPDATE+1)^080h
  2909  0121  07A1               	addwf	(?_RIGHT_ENGINE_UPDATE+1)^080h
  2910  0122  0825               	movf	(read_data@speed_1798)^080h,w
  2911  0123  01A0               	clrf	(?_RIGHT_ENGINE_UPDATE)^080h
  2912  0124  07A0               	addwf	(?_RIGHT_ENGINE_UPDATE)^080h
  2913                           
  2914  0125  0827               	movf	(read_data@dir_1796)^080h,w
  2915  0126  1283               	bcf	status, 5	;RP0=0, select bank0
  2916  0127  1303               	bcf	status, 6	;RP1=0, select bank0
  2917  0128  00B8               	movwf	(??_read_data+0+0)
  2918  0129  0838               	movf	(??_read_data+0+0),w
  2919  012A  1683               	bsf	status, 5	;RP0=1, select bank1
  2920  012B  1303               	bcf	status, 6	;RP1=0, select bank1
  2921  012C  00A2               	movwf	0+(?_RIGHT_ENGINE_UPDATE)^080h+02h
  2922  012D  120A  118A  2301   	fcall	_RIGHT_ENGINE_UPDATE
              120A  118A         
  2923                           	
  2924  0132                     i1l52:	
  2925  0132  0008               	return
  2926                           	opt stack 0
  2927                           GLOBAL	__end_of_read_data
  2928  0133                     	__end_of_read_data:
  2929                           ; =============== function _read_data ends ============
  2930                           
  2931                           psect	text187,local,class=CODE,delta=2
  2932                           global __ptext187
  2933  0301                     __ptext187:
  2934                           	line	85
  2935                           	signat	_read_data,4216
  2936                           	global	_RIGHT_ENGINE_UPDATE
  2937                           
  2938                           ; *************** function _RIGHT_ENGINE_UPDATE *****************
  2939                           ; Defined at:
  2940                           ;		line 54 in file "engine_modul.c"
  2941                           ; Parameters:    Size  Location     Type
  2942                           ;  speed           2    0[BANK1 ] unsigned int 
  2943                           ;  dir             1    2[BANK1 ] unsigned char 
  2944                           ; Auto vars:     Size  Location     Type
  2945                           ;		None
  2946                           ; Return value:  Size  Location     Type
  2947                           ;		None               void
  2948                           ; Registers used:
  2949                           ;		wreg, status,2, status,0, pclath, cstack
  2950                           ; Tracked objects:
  2951                           ;		On entry : 0/0
  2952                           ;		On exit  : 0/0
  2953                           ;		Unchanged: 0/0
  2954                           ; Data sizes:     COMMON   BANK0   BANK1   BANK3   BANK2
  2955                           ;      Locals:         0       2       3       0       0
  2956                           ;      Temp:     2
  2957                           ;      Total:    5
  2958                           ; This function calls:
  2959                           ;		_ENGINE_UPDATE
  2960                           ; This function is called by:
  2961                           ;		_read_data
  2962                           ; This function uses a non-reentrant model
  2963                           ; 
  2964                           psect	text187
  2965                           	file	"engine_modul.c"
  2966                           	line	54
  2967                           	global	__size_of_RIGHT_ENGINE_UPDATE
  2968  002E                     	__size_of_RIGHT_ENGINE_UPDATE	equ	__end_of_RIGHT_ENGINE_UPDATE-_RIGHT_ENGINE_UPDATE
  2969                           ;engine_modul.c: 54: void RIGHT_ENGINE_UPDATE(unsigned int speed, unsigned char dir){
  2970                           	
  2971  0301                     _RIGHT_ENGINE_UPDATE:	
  2972                           	opt stack 4
  2973                           ; Regs used in _RIGHT_ENGINE_UPDATE: [wreg+status,2+status,0+pclath+cstack]
  2974                           	line	56
  2975                           	
  2976  0301                     i1l30002410:	
  2977                           ;engine_modul.c: 56: OLD_RM_SPEED = speed;
  2978  0301  1683               	bsf	status, 5	;RP0=1, select bank1
  2979  0302  1303               	bcf	status, 6	;RP1=0, select bank1
  2980  0303  0821               	movf	(RIGHT_ENGINE_UPDATE@speed+1)^080h,w
  2981  0304  1283               	bcf	status, 5	;RP0=0, select bank0
  2982  0305  1303               	bcf	status, 6	;RP1=0, select bank0
  2983  0306  01C2               	clrf	(_OLD_RM_SPEED+1)
  2984  0307  07C2               	addwf	(_OLD_RM_SPEED+1)
  2985  0308  1683               	bsf	status, 5	;RP0=1, select bank1
  2986  0309  1303               	bcf	status, 6	;RP1=0, select bank1
  2987  030A  0820               	movf	(RIGHT_ENGINE_UPDATE@speed)^080h,w
  2988  030B  1283               	bcf	status, 5	;RP0=0, select bank0
  2989  030C  1303               	bcf	status, 6	;RP1=0, select bank0
  2990  030D  01C1               	clrf	(_OLD_RM_SPEED)
  2991  030E  07C1               	addwf	(_OLD_RM_SPEED)
  2992                           
  2993                           	
  2994  030F                     i1l30002411:	
  2995                           	line	57
  2996                           ;engine_modul.c: 57: OLD_RM_DIR = dir;
  2997  030F  1683               	bsf	status, 5	;RP0=1, select bank1
  2998  0310  1303               	bcf	status, 6	;RP1=0, select bank1
  2999  0311  0822               	movf	(RIGHT_ENGINE_UPDATE@dir)^080h,w
  3000  0312  00F2               	movwf	(_OLD_RM_DIR)
  3001                           	
  3002  0313                     i1l30002412:	
  3003                           	line	59
  3004                           ;engine_modul.c: 59: ENGINE_UPDATE(OLD_LM_SPEED, OLD_LM_DIR, OLD_RM_SPEED, OLD_RM_DIR);
  3005  0313  0871               	movf	(_OLD_LM_DIR),w
  3006  0314  1283               	bcf	status, 5	;RP0=0, select bank0
  3007  0315  1303               	bcf	status, 6	;RP1=0, select bank0
  3008  0316  00B6               	movwf	(??_RIGHT_ENGINE_UPDATE+0+0)
  3009  0317  0836               	movf	(??_RIGHT_ENGINE_UPDATE+0+0),w
  3010  0318  00B2               	movwf	0+(?_ENGINE_UPDATE)+02h
  3011  0319  0840               	movf	(_OLD_LM_SPEED+1),w
  3012  031A  01B1               	clrf	(?_ENGINE_UPDATE+1)
  3013  031B  07B1               	addwf	(?_ENGINE_UPDATE+1)
  3014  031C  083F               	movf	(_OLD_LM_SPEED),w
  3015  031D  01B0               	clrf	(?_ENGINE_UPDATE)
  3016  031E  07B0               	addwf	(?_ENGINE_UPDATE)
  3017                           
  3018  031F  0872               	movf	(_OLD_RM_DIR),w
  3019  0320  00B7               	movwf	(??_RIGHT_ENGINE_UPDATE+1+0)
  3020  0321  0837               	movf	(??_RIGHT_ENGINE_UPDATE+1+0),w
  3021  0322  00B5               	movwf	0+(?_ENGINE_UPDATE)+05h
  3022  0323  0842               	movf	(_OLD_RM_SPEED+1),w
  3023  0324  01B4               	clrf	1+(?_ENGINE_UPDATE)+03h
  3024  0325  07B4               	addwf	1+(?_ENGINE_UPDATE)+03h
  3025  0326  0841               	movf	(_OLD_RM_SPEED),w
  3026  0327  01B3               	clrf	0+(?_ENGINE_UPDATE)+03h
  3027  0328  07B3               	addwf	0+(?_ENGINE_UPDATE)+03h
  3028                           
  3029  0329  120A  118A  21A9   	fcall	_ENGINE_UPDATE
              120A  118A         
  3030                           	
  3031  032E                     i1l38:	
  3032  032E  0008               	return
  3033                           	opt stack 0
  3034                           GLOBAL	__end_of_RIGHT_ENGINE_UPDATE
  3035  032F                     	__end_of_RIGHT_ENGINE_UPDATE:
  3036                           ; =============== function _RIGHT_ENGINE_UPDATE ends ============
  3037                           
  3038                           psect	text188,local,class=CODE,delta=2
  3039                           global __ptext188
  3040  03F6                     __ptext188:
  3041                           	line	60
  3042                           	signat	_RIGHT_ENGINE_UPDATE,8312
  3043                           	global	i1_DELAY_TIMER1_15uS
  3044                           
  3045                           ; *************** function i1_DELAY_TIMER1_15uS *****************
  3046                           ; Defined at:
  3047                           ;		line 92 in file "delay.c"
  3048                           ; Parameters:    Size  Location     Type
  3049                           ;		None
  3050                           ; Auto vars:     Size  Location     Type
  3051                           ;		None
  3052                           ; Return value:  Size  Location     Type
  3053                           ;		None               void
  3054                           ; Registers used:
  3055                           ;		wreg
  3056                           ; Tracked objects:
  3057                           ;		On entry : 0/0
  3058                           ;		On exit  : 0/0
  3059                           ;		Unchanged: 0/0
  3060                           ; Data sizes:     COMMON   BANK0   BANK1   BANK3   BANK2
  3061                           ;      Locals:         0       0       0       0       0
  3062                           ;      Temp:     0
  3063                           ;      Total:    0
  3064                           ; This function calls:
  3065                           ;		Nothing
  3066                           ; This function is called by:
  3067                           ;		_BLUETOOTH_RESTART
  3068                           ; This function uses a non-reentrant model
  3069                           ; 
  3070                           psect	text188
  3071                           	file	"delay.c"
  3072                           	line	92
  3073                           	global	__size_ofi1_DELAY_TIMER1_15uS
  3074  0016                     	__size_ofi1_DELAY_TIMER1_15uS	equ	__end_ofi1_DELAY_TIMER1_15uS-i1_DELAY_TIMER1_15uS
  3075                           ;delay.c: 92: void DELAY_TIMER1_15uS(void){
  3076                           	
  3077  03F6                     i1_DELAY_TIMER1_15uS:	
  3078                           	opt stack 4
  3079                           ; Regs used in i1_DELAY_TIMER1_15uS: [wreg]
  3080                           	line	94
  3081                           	
  3082  03F6                     i1l30002471:	
  3083                           ;delay.c: 94: TMR1H = 0xff;
  3084  03F6  30FF               	movlw	(0FFh)
  3085  03F7  1283               	bcf	status, 5	;RP0=0, select bank0
  3086  03F8  1303               	bcf	status, 6	;RP1=0, select bank0
  3087  03F9  008F               	movwf	(15)	;volatile
  3088                           	line	95
  3089                           ;delay.c: 95: TMR1L = 0xfe;
  3090  03FA  30FE               	movlw	(0FEh)
  3091  03FB  008E               	movwf	(14)	;volatile
  3092                           	
  3093  03FC                     i1l30002472:	
  3094                           	line	96
  3095                           ;delay.c: 96: TMR1IF = 0;
  3096  03FC  100C               	bcf	(96/8),(96)&7
  3097                           	line	98
  3098                           ;delay.c: 98: T1CON = 0x20;
  3099  03FD  3020               	movlw	(020h)
  3100  03FE  0090               	movwf	(16)	;volatile
  3101                           	
  3102  03FF                     i1l30002473:	
  3103                           	line	100
  3104                           ;delay.c: 100: TMR1ON = 1;
  3105  03FF  1410               	bsf	(128/8),(128)&7
  3106                           	
  3107  0400                     i1l22:	
  3108                           	line	101
  3109  0400  1C0C               	btfss	(96/8),(96)&7
  3110  0401  2C03               	goto	u138_21
  3111  0402  2C04               	goto	u138_20
  3112  0403                     u138_21:
  3113  0403  2C00               	goto	i1l22
  3114  0404                     u138_20:
  3115                           	
  3116  0404                     i1l24:	
  3117                           	line	102
  3118                           ;delay.c: 102: TMR1ON = 0;
  3119  0404  1010               	bcf	(128/8),(128)&7
  3120                           	line	104
  3121                           # 104 "delay.c"
  3122  0405  0000               NOP ;#
  3123                           	line	105
  3124                           # 105 "delay.c"
  3125  0406  0000               NOP ;#
  3126                           	line	106
  3127                           # 106 "delay.c"
  3128  0407  0000               NOP ;#
  3129                           	line	107
  3130                           # 107 "delay.c"
  3131  0408  0000               NOP ;#
  3132                           	line	108
  3133                           # 108 "delay.c"
  3134  0409  0000               NOP ;#
  3135                           	line	109
  3136                           # 109 "delay.c"
  3137  040A  0000               NOP ;#
  3138                           psect	text188
  3139                           	
  3140  040B                     i1l21:	
  3141  040B  0008               	return
  3142                           	opt stack 0
  3143                           GLOBAL	__end_ofi1_DELAY_TIMER1_15uS
  3144  040C                     	__end_ofi1_DELAY_TIMER1_15uS:
  3145                           ; =============== function i1_DELAY_TIMER1_15uS ends ============
  3146                           
  3147                           psect	text189,local,class=CODE,delta=2
  3148                           global __ptext189
  3149  035B                     __ptext189:
  3150                           	line	110
  3151                           	signat	i1_DELAY_TIMER1_15uS,88
  3152                           	global	___wmul
  3153                           
  3154                           ; *************** function ___wmul *****************
  3155                           ; Defined at:
  3156                           ;		line 3 in file "C:\Program Files (x86)\HI-TECH Software\PICC\9.70\sources\wmul.c"
  3157                           ; Parameters:    Size  Location     Type
  3158                           ;  multiplier      2   16[BANK0 ] unsigned int 
  3159                           ;  multiplicand    2   18[BANK0 ] unsigned int 
  3160                           ; Auto vars:     Size  Location     Type
  3161                           ;  product         2   14[BANK0 ] unsigned int 
  3162                           ; Return value:  Size  Location     Type
  3163                           ;                  2   16[BANK0 ] unsigned int 
  3164                           ; Registers used:
  3165                           ;		wreg, status,2, status,0
  3166                           ; Tracked objects:
  3167                           ;		On entry : 0/0
  3168                           ;		On exit  : 0/0
  3169                           ;		Unchanged: 0/0
  3170                           ; Data sizes:     COMMON   BANK0   BANK1   BANK3   BANK2
  3171                           ;      Locals:         0       6       0       0       0
  3172                           ;      Temp:     0
  3173                           ;      Total:    6
  3174                           ; This function calls:
  3175                           ;		Nothing
  3176                           ; This function is called by:
  3177                           ;		_read_data
  3178                           ; This function uses a non-reentrant model
  3179                           ; 
  3180                           psect	text189
  3181                           	file	"C:\Program Files (x86)\HI-TECH Software\PICC\9.70\sources\wmul.c"
  3182                           	line	3
  3183                           	global	__size_of___wmul
  3184  002B                     	__size_of___wmul	equ	__end_of___wmul-___wmul
  3185                           	
  3186  035B                     ___wmul:	
  3187                           	opt stack 4
  3188                           ; Regs used in ___wmul: [wreg+status,2+status,0]
  3189                           	line	4
  3190                           	
  3191  035B                     i1l30002438:	
  3192  035B  3000               	movlw	low(0)
  3193  035C  1283               	bcf	status, 5	;RP0=0, select bank0
  3194  035D  1303               	bcf	status, 6	;RP1=0, select bank0
  3195  035E  00AE               	movwf	(___wmul@product)
  3196  035F  3000               	movlw	high(0)
  3197  0360  00AF               	movwf	((___wmul@product))+1
  3198                           	
  3199  0361                     i1l30002439:	
  3200                           	line	7
  3201  0361  1C30               	btfss	(___wmul@multiplier),(0)&7
  3202  0362  2B64               	goto	u124_21
  3203  0363  2B65               	goto	u124_20
  3204  0364                     u124_21:
  3205  0364  2B6B               	goto	i1l100
  3206  0365                     u124_20:
  3207                           	
  3208  0365                     i1l30002440:	
  3209                           	line	8
  3210  0365  0832               	movf	(___wmul@multiplicand),w
  3211  0366  07AE               	addwf	(___wmul@product),f
  3212  0367  1803               	skipnc
  3213  0368  0AAF               	incf	(___wmul@product+1),f
  3214  0369  0833               	movf	(___wmul@multiplicand+1),w
  3215  036A  07AF               	addwf	(___wmul@product+1),f
  3216                           	
  3217  036B                     i1l100:	
  3218                           	line	9
  3219  036B  3001               	movlw	01h
  3220  036C                     u125_25:
  3221  036C  1003               	clrc
  3222  036D  0DB2               	rlf	(___wmul@multiplicand),f
  3223  036E  0DB3               	rlf	(___wmul@multiplicand+1),f
  3224  036F  3EFF               	addlw	-1
  3225  0370  1D03               	skipz
  3226  0371  2B6C               	goto	u125_25
  3227                           	
  3228  0372                     i1l30002441:	
  3229                           	line	10
  3230  0372  3001               	movlw	01h
  3231  0373                     u126_25:
  3232  0373  1003               	clrc
  3233  0374  0CB1               	rrf	(___wmul@multiplier+1),f
  3234  0375  0CB0               	rrf	(___wmul@multiplier),f
  3235  0376  3EFF               	addlw	-1
  3236  0377  1D03               	skipz
  3237  0378  2B73               	goto	u126_25
  3238                           	line	11
  3239  0379  0831               	movf	((___wmul@multiplier+1)),w
  3240  037A  0430               	iorwf	((___wmul@multiplier)),w
  3241  037B  1D03               	skipz
  3242  037C  2B7E               	goto	u127_21
  3243  037D  2B7F               	goto	u127_20
  3244  037E                     u127_21:
  3245  037E  2B61               	goto	i1l30002439
  3246  037F                     u127_20:
  3247                           	
  3248  037F                     i1l30002442:	
  3249                           	line	12
  3250  037F  082F               	movf	(___wmul@product+1),w
  3251  0380  01B1               	clrf	(?___wmul+1)
  3252  0381  07B1               	addwf	(?___wmul+1)
  3253  0382  082E               	movf	(___wmul@product),w
  3254  0383  01B0               	clrf	(?___wmul)
  3255  0384  07B0               	addwf	(?___wmul)
  3256                           
  3257                           	
  3258  0385                     i1l96:	
  3259  0385  0008               	return
  3260                           	opt stack 0
  3261                           GLOBAL	__end_of___wmul
  3262  0386                     	__end_of___wmul:
  3263                           ; =============== function ___wmul ends ============
  3264                           
  3265                           psect	text190,local,class=CODE,delta=2
  3266                           global __ptext190
  3267  02D3                     __ptext190:
  3268                           	line	13
  3269                           	signat	___wmul,8314
  3270                           	global	_LEFT_ENGINE_UPDATE
  3271                           
  3272                           ; *************** function _LEFT_ENGINE_UPDATE *****************
  3273                           ; Defined at:
  3274                           ;		line 46 in file "engine_modul.c"
  3275                           ; Parameters:    Size  Location     Type
  3276                           ;  speed           2    0[BANK1 ] unsigned int 
  3277                           ;  dir             1    2[BANK1 ] unsigned char 
  3278                           ; Auto vars:     Size  Location     Type
  3279                           ;		None
  3280                           ; Return value:  Size  Location     Type
  3281                           ;		None               void
  3282                           ; Registers used:
  3283                           ;		wreg, status,2, status,0, pclath, cstack
  3284                           ; Tracked objects:
  3285                           ;		On entry : 0/0
  3286                           ;		On exit  : 0/0
  3287                           ;		Unchanged: 0/0
  3288                           ; Data sizes:     COMMON   BANK0   BANK1   BANK3   BANK2
  3289                           ;      Locals:         0       2       3       0       0
  3290                           ;      Temp:     2
  3291                           ;      Total:    5
  3292                           ; This function calls:
  3293                           ;		_ENGINE_UPDATE
  3294                           ; This function is called by:
  3295                           ;		_read_data
  3296                           ; This function uses a non-reentrant model
  3297                           ; 
  3298                           psect	text190
  3299                           	file	"engine_modul.c"
  3300                           	line	46
  3301                           	global	__size_of_LEFT_ENGINE_UPDATE
  3302  002E                     	__size_of_LEFT_ENGINE_UPDATE	equ	__end_of_LEFT_ENGINE_UPDATE-_LEFT_ENGINE_UPDATE
  3303                           ;engine_modul.c: 46: void LEFT_ENGINE_UPDATE(unsigned int speed, unsigned char dir) {
  3304                           	
  3305  02D3                     _LEFT_ENGINE_UPDATE:	
  3306                           	opt stack 4
  3307                           ; Regs used in _LEFT_ENGINE_UPDATE: [wreg+status,2+status,0+pclath+cstack]
  3308                           	line	48
  3309                           	
  3310  02D3                     i1l30002435:	
  3311                           ;engine_modul.c: 48: OLD_LM_SPEED = speed;
  3312  02D3  1683               	bsf	status, 5	;RP0=1, select bank1
  3313  02D4  1303               	bcf	status, 6	;RP1=0, select bank1
  3314  02D5  0821               	movf	(LEFT_ENGINE_UPDATE@speed+1)^080h,w
  3315  02D6  1283               	bcf	status, 5	;RP0=0, select bank0
  3316  02D7  1303               	bcf	status, 6	;RP1=0, select bank0
  3317  02D8  01C0               	clrf	(_OLD_LM_SPEED+1)
  3318  02D9  07C0               	addwf	(_OLD_LM_SPEED+1)
  3319  02DA  1683               	bsf	status, 5	;RP0=1, select bank1
  3320  02DB  1303               	bcf	status, 6	;RP1=0, select bank1
  3321  02DC  0820               	movf	(LEFT_ENGINE_UPDATE@speed)^080h,w
  3322  02DD  1283               	bcf	status, 5	;RP0=0, select bank0
  3323  02DE  1303               	bcf	status, 6	;RP1=0, select bank0
  3324  02DF  01BF               	clrf	(_OLD_LM_SPEED)
  3325  02E0  07BF               	addwf	(_OLD_LM_SPEED)
  3326                           
  3327                           	
  3328  02E1                     i1l30002436:	
  3329                           	line	49
  3330                           ;engine_modul.c: 49: OLD_LM_DIR = dir;
  3331  02E1  1683               	bsf	status, 5	;RP0=1, select bank1
  3332  02E2  1303               	bcf	status, 6	;RP1=0, select bank1
  3333  02E3  0822               	movf	(LEFT_ENGINE_UPDATE@dir)^080h,w
  3334  02E4  00F1               	movwf	(_OLD_LM_DIR)
  3335                           	
  3336  02E5                     i1l30002437:	
  3337                           	line	51
  3338                           ;engine_modul.c: 51: ENGINE_UPDATE(OLD_LM_SPEED, OLD_LM_DIR, OLD_RM_SPEED, OLD_RM_DIR);
  3339  02E5  0871               	movf	(_OLD_LM_DIR),w
  3340  02E6  1283               	bcf	status, 5	;RP0=0, select bank0
  3341  02E7  1303               	bcf	status, 6	;RP1=0, select bank0
  3342  02E8  00B6               	movwf	(??_LEFT_ENGINE_UPDATE+0+0)
  3343  02E9  0836               	movf	(??_LEFT_ENGINE_UPDATE+0+0),w
  3344  02EA  00B2               	movwf	0+(?_ENGINE_UPDATE)+02h
  3345  02EB  0840               	movf	(_OLD_LM_SPEED+1),w
  3346  02EC  01B1               	clrf	(?_ENGINE_UPDATE+1)
  3347  02ED  07B1               	addwf	(?_ENGINE_UPDATE+1)
  3348  02EE  083F               	movf	(_OLD_LM_SPEED),w
  3349  02EF  01B0               	clrf	(?_ENGINE_UPDATE)
  3350  02F0  07B0               	addwf	(?_ENGINE_UPDATE)
  3351                           
  3352  02F1  0872               	movf	(_OLD_RM_DIR),w
  3353  02F2  00B7               	movwf	(??_LEFT_ENGINE_UPDATE+1+0)
  3354  02F3  0837               	movf	(??_LEFT_ENGINE_UPDATE+1+0),w
  3355  02F4  00B5               	movwf	0+(?_ENGINE_UPDATE)+05h
  3356  02F5  0842               	movf	(_OLD_RM_SPEED+1),w
  3357  02F6  01B4               	clrf	1+(?_ENGINE_UPDATE)+03h
  3358  02F7  07B4               	addwf	1+(?_ENGINE_UPDATE)+03h
  3359  02F8  0841               	movf	(_OLD_RM_SPEED),w
  3360  02F9  01B3               	clrf	0+(?_ENGINE_UPDATE)+03h
  3361  02FA  07B3               	addwf	0+(?_ENGINE_UPDATE)+03h
  3362                           
  3363  02FB  120A  118A  21A9   	fcall	_ENGINE_UPDATE
              120A  118A         
  3364                           	
  3365  0300                     i1l37:	
  3366  0300  0008               	return
  3367                           	opt stack 0
  3368                           GLOBAL	__end_of_LEFT_ENGINE_UPDATE
  3369  0301                     	__end_of_LEFT_ENGINE_UPDATE:
  3370                           ; =============== function _LEFT_ENGINE_UPDATE ends ============
  3371                           
  3372                           psect	text191,local,class=CODE,delta=2
  3373                           global __ptext191
  3374  01A9                     __ptext191:
  3375                           	line	52
  3376                           	signat	_LEFT_ENGINE_UPDATE,8312
  3377                           	global	_ENGINE_UPDATE
  3378                           
  3379                           ; *************** function _ENGINE_UPDATE *****************
  3380                           ; Defined at:
  3381                           ;		line 63 in file "engine_modul.c"
  3382                           ; Parameters:    Size  Location     Type
  3383                           ;  LM_speed        2   16[BANK0 ] unsigned int 
  3384                           ;  LM_dir          1   18[BANK0 ] unsigned char 
  3385                           ;  RM_speed        2   19[BANK0 ] unsigned int 
  3386                           ;  RM_dir          1   21[BANK0 ] unsigned char 
  3387                           ; Auto vars:     Size  Location     Type
  3388                           ;		None
  3389                           ; Return value:  Size  Location     Type
  3390                           ;		None               void
  3391                           ; Registers used:
  3392                           ;		wreg, status,2, status,0, pclath, cstack
  3393                           ; Tracked objects:
  3394                           ;		On entry : 0/0
  3395                           ;		On exit  : 0/0
  3396                           ;		Unchanged: 0/0
  3397                           ; Data sizes:     COMMON   BANK0   BANK1   BANK3   BANK2
  3398                           ;      Locals:         0       8       0       0       0
  3399                           ;      Temp:     2
  3400                           ;      Total:    8
  3401                           ; This function calls:
  3402                           ;		_STOP_ENGINE
  3403                           ;		_START_ENGINE
  3404                           ; This function is called by:
  3405                           ;		_LEFT_ENGINE_UPDATE
  3406                           ;		_RIGHT_ENGINE_UPDATE
  3407                           ; This function uses a non-reentrant model
  3408                           ; 
  3409                           psect	text191
  3410                           	file	"engine_modul.c"
  3411                           	line	63
  3412                           	global	__size_of_ENGINE_UPDATE
  3413  005B                     	__size_of_ENGINE_UPDATE	equ	__end_of_ENGINE_UPDATE-_ENGINE_UPDATE
  3414                           ;engine_modul.c: 62: void ENGINE_UPDATE(unsigned int LM_speed, unsigned char LM_dir,
  3415                           ;engine_modul.c: 63: unsigned int RM_speed, unsigned char RM_dir){
  3416                           	
  3417  01A9                     _ENGINE_UPDATE:	
  3418                           	opt stack 3
  3419                           ; Regs used in _ENGINE_UPDATE: [wreg+status,2+status,0+pclath+cstack]
  3420                           	line	65
  3421                           	
  3422  01A9                     i1l30002444:	
  3423                           ;engine_modul.c: 65: STOP_ENGINE();
  3424  01A9  120A  118A  243A   	fcall	_STOP_ENGINE
              120A  118A         
  3425                           	
  3426  01AE                     i1l30002445:	
  3427                           	line	67
  3428                           ;engine_modul.c: 67: TRISC2 = 0;
  3429  01AE  1683               	bsf	status, 5	;RP0=1, select bank1
  3430  01AF  1303               	bcf	status, 6	;RP1=0, select bank1
  3431  01B0  1107               	bcf	(1082/8)^080h,(1082)&7
  3432                           	
  3433  01B1                     i1l30002446:	
  3434                           	line	68
  3435                           ;engine_modul.c: 68: TRISD1 = 0;
  3436  01B1  1088               	bcf	(1089/8)^080h,(1089)&7
  3437                           	
  3438  01B2                     i1l30002447:	
  3439                           	line	70
  3440                           ;engine_modul.c: 70: TRISC1 = 0;
  3441  01B2  1087               	bcf	(1081/8)^080h,(1081)&7
  3442                           	
  3443  01B3                     i1l30002448:	
  3444                           	line	71
  3445                           ;engine_modul.c: 71: TRISD0 = 0;
  3446  01B3  1008               	bcf	(1088/8)^080h,(1088)&7
  3447                           	
  3448  01B4                     i1l30002449:	
  3449                           	line	75
  3450                           ;engine_modul.c: 75: CCPR1L = (LM_speed >> 2);
  3451  01B4  1283               	bcf	status, 5	;RP0=0, select bank0
  3452  01B5  1303               	bcf	status, 6	;RP1=0, select bank0
  3453  01B6  0831               	movf	(ENGINE_UPDATE@LM_speed+1),w
  3454  01B7  00AF               	movwf	(??_ENGINE_UPDATE+0+0+1)
  3455  01B8  0830               	movf	(ENGINE_UPDATE@LM_speed),w
  3456  01B9  00AE               	movwf	(??_ENGINE_UPDATE+0+0)
  3457  01BA  3002               	movlw	02h
  3458  01BB                     u128_25:
  3459  01BB  1003               	clrc
  3460  01BC  0CAF               	rrf	(??_ENGINE_UPDATE+0+1),f
  3461  01BD  0CAE               	rrf	(??_ENGINE_UPDATE+0+0),f
  3462  01BE  3EFF               	addlw	-1
  3463  01BF  1D03               	skipz
  3464  01C0  29BB               	goto	u128_25
  3465  01C1  082E               	movf	0+(??_ENGINE_UPDATE+0+0),w
  3466  01C2  0095               	movwf	(21)	;volatile
  3467                           	
  3468  01C3                     i1l30002450:	
  3469                           	line	76
  3470                           ;engine_modul.c: 76: CCP1X = (LM_speed & 2);
  3471  01C3  1297               	bcf	(189/8),(189)&7
  3472                           	
  3473  01C4                     i1l30002451:	
  3474                           	line	77
  3475                           ;engine_modul.c: 77: CCP1Y = (LM_speed & 1);
  3476  01C4  1830               	btfsc	(ENGINE_UPDATE@LM_speed),0
  3477  01C5  29C7               	goto	u129_21
  3478  01C6  29CB               	goto	u129_20
  3479                           	
  3480  01C7                     u129_21:
  3481  01C7  1283               	bcf	status, 5	;RP0=0, select bank0
  3482  01C8  1303               	bcf	status, 6	;RP1=0, select bank0
  3483  01C9  1617               	bsf	(188/8),(188)&7
  3484  01CA  29CE               	goto	u130_24
  3485  01CB                     u129_20:
  3486  01CB  1283               	bcf	status, 5	;RP0=0, select bank0
  3487  01CC  1303               	bcf	status, 6	;RP1=0, select bank0
  3488  01CD  1217               	bcf	(188/8),(188)&7
  3489  01CE                     u130_24:
  3490                           	
  3491  01CE                     i1l30002452:	
  3492                           	line	80
  3493                           ;engine_modul.c: 80: CCPR2L = (RM_speed >> 2);
  3494  01CE  0834               	movf	(ENGINE_UPDATE@RM_speed+1),w
  3495  01CF  00AF               	movwf	(??_ENGINE_UPDATE+0+0+1)
  3496  01D0  0833               	movf	(ENGINE_UPDATE@RM_speed),w
  3497  01D1  00AE               	movwf	(??_ENGINE_UPDATE+0+0)
  3498  01D2  3002               	movlw	02h
  3499  01D3                     u131_25:
  3500  01D3  1003               	clrc
  3501  01D4  0CAF               	rrf	(??_ENGINE_UPDATE+0+1),f
  3502  01D5  0CAE               	rrf	(??_ENGINE_UPDATE+0+0),f
  3503  01D6  3EFF               	addlw	-1
  3504  01D7  1D03               	skipz
  3505  01D8  29D3               	goto	u131_25
  3506  01D9  082E               	movf	0+(??_ENGINE_UPDATE+0+0),w
  3507  01DA  009B               	movwf	(27)	;volatile
  3508                           	
  3509  01DB                     i1l30002453:	
  3510                           	line	81
  3511                           ;engine_modul.c: 81: CCP2X = (RM_speed & 2);
  3512  01DB  129D               	bcf	(237/8),(237)&7
  3513                           	
  3514  01DC                     i1l30002454:	
  3515                           	line	82
  3516                           ;engine_modul.c: 82: CCP2Y = (RM_speed & 1);
  3517  01DC  1833               	btfsc	(ENGINE_UPDATE@RM_speed),0
  3518  01DD  29DF               	goto	u132_21
  3519  01DE  29E3               	goto	u132_20
  3520                           	
  3521  01DF                     u132_21:
  3522  01DF  1283               	bcf	status, 5	;RP0=0, select bank0
  3523  01E0  1303               	bcf	status, 6	;RP1=0, select bank0
  3524  01E1  161D               	bsf	(236/8),(236)&7
  3525  01E2  29E6               	goto	u133_24
  3526  01E3                     u132_20:
  3527  01E3  1283               	bcf	status, 5	;RP0=0, select bank0
  3528  01E4  1303               	bcf	status, 6	;RP1=0, select bank0
  3529  01E5  121D               	bcf	(236/8),(236)&7
  3530  01E6                     u133_24:
  3531                           	
  3532  01E6                     i1l30002455:	
  3533                           	line	85
  3534                           ;engine_modul.c: 85: RD1 = LM_dir;
  3535  01E6  1832               	btfsc	(ENGINE_UPDATE@LM_dir),0
  3536  01E7  29E9               	goto	u134_21
  3537  01E8  29ED               	goto	u134_20
  3538                           	
  3539  01E9                     u134_21:
  3540  01E9  1283               	bcf	status, 5	;RP0=0, select bank0
  3541  01EA  1303               	bcf	status, 6	;RP1=0, select bank0
  3542  01EB  1488               	bsf	(65/8),(65)&7
  3543  01EC  29F0               	goto	u135_24
  3544  01ED                     u134_20:
  3545  01ED  1283               	bcf	status, 5	;RP0=0, select bank0
  3546  01EE  1303               	bcf	status, 6	;RP1=0, select bank0
  3547  01EF  1088               	bcf	(65/8),(65)&7
  3548  01F0                     u135_24:
  3549                           	
  3550  01F0                     i1l30002456:	
  3551                           	line	88
  3552                           ;engine_modul.c: 88: RD0 = RM_dir;
  3553  01F0  1835               	btfsc	(ENGINE_UPDATE@RM_dir),0
  3554  01F1  29F3               	goto	u136_21
  3555  01F2  29F7               	goto	u136_20
  3556                           	
  3557  01F3                     u136_21:
  3558  01F3  1283               	bcf	status, 5	;RP0=0, select bank0
  3559  01F4  1303               	bcf	status, 6	;RP1=0, select bank0
  3560  01F5  1408               	bsf	(64/8),(64)&7
  3561  01F6  29FA               	goto	u137_24
  3562  01F7                     u136_20:
  3563  01F7  1283               	bcf	status, 5	;RP0=0, select bank0
  3564  01F8  1303               	bcf	status, 6	;RP1=0, select bank0
  3565  01F9  1008               	bcf	(64/8),(64)&7
  3566  01FA                     u137_24:
  3567                           	
  3568  01FA                     i1l30002457:	
  3569                           	line	99
  3570                           ;engine_modul.c: 99: CCP1M3 = 1;
  3571  01FA  1597               	bsf	(187/8),(187)&7
  3572                           	
  3573  01FB                     i1l30002458:	
  3574                           	line	100
  3575                           ;engine_modul.c: 100: CCP1M2 = 1;
  3576  01FB  1517               	bsf	(186/8),(186)&7
  3577                           	
  3578  01FC                     i1l30002459:	
  3579                           	line	104
  3580                           ;engine_modul.c: 104: CCP2M3 = 1;
  3581  01FC  159D               	bsf	(235/8),(235)&7
  3582                           	
  3583  01FD                     i1l30002460:	
  3584                           	line	105
  3585                           ;engine_modul.c: 105: CCP2M2 = 1;
  3586  01FD  151D               	bsf	(234/8),(234)&7
  3587                           	line	108
  3588                           ;engine_modul.c: 108: START_ENGINE();
  3589  01FE  120A  118A  2448   	fcall	_START_ENGINE
              120A  118A         
  3590                           	
  3591  0203                     i1l39:	
  3592  0203  0008               	return
  3593                           	opt stack 0
  3594                           GLOBAL	__end_of_ENGINE_UPDATE
  3595  0204                     	__end_of_ENGINE_UPDATE:
  3596                           ; =============== function _ENGINE_UPDATE ends ============
  3597                           
  3598                           psect	text192,local,class=CODE,delta=2
  3599                           global __ptext192
  3600  043A                     __ptext192:
  3601                           	line	109
  3602                           	signat	_ENGINE_UPDATE,16504
  3603                           	global	_STOP_ENGINE
  3604                           
  3605                           ; *************** function _STOP_ENGINE *****************
  3606                           ; Defined at:
  3607                           ;		line 15 in file "engine_modul.c"
  3608                           ; Parameters:    Size  Location     Type
  3609                           ;		None
  3610                           ; Auto vars:     Size  Location     Type
  3611                           ;		None
  3612                           ; Return value:  Size  Location     Type
  3613                           ;		None               void
  3614                           ; Registers used:
  3615                           ;		wreg, status,2, status,0
  3616                           ; Tracked objects:
  3617                           ;		On entry : 0/0
  3618                           ;		On exit  : 0/0
  3619                           ;		Unchanged: 0/0
  3620                           ; Data sizes:     COMMON   BANK0   BANK1   BANK3   BANK2
  3621                           ;      Locals:         0       0       0       0       0
  3622                           ;      Temp:     0
  3623                           ;      Total:    0
  3624                           ; This function calls:
  3625                           ;		Nothing
  3626                           ; This function is called by:
  3627                           ;		_ENGINE_UPDATE
  3628                           ; This function uses a non-reentrant model
  3629                           ; 
  3630                           psect	text192
  3631                           	file	"engine_modul.c"
  3632                           	line	15
  3633                           	global	__size_of_STOP_ENGINE
  3634  000E                     	__size_of_STOP_ENGINE	equ	__end_of_STOP_ENGINE-_STOP_ENGINE
  3635                           ;engine_modul.c: 5: unsigned int OLD_LM_SPEED = 0;
  3636                           ;engine_modul.c: 6: unsigned char OLD_LM_DIR = 0;
  3637                           ;engine_modul.c: 8: unsigned int OLD_RM_SPEED = 0;
  3638                           ;engine_modul.c: 9: unsigned char OLD_RM_DIR = 0;
  3639                           ;engine_modul.c: 12: void ENGINE_UPDATE(unsigned int LM_speed, unsigned char LM_dir,
  3640                           ;engine_modul.c: 13: unsigned int RM_speed, unsigned char RM_dir);
  3641                           ;engine_modul.c: 15: void STOP_ENGINE(){
  3642                           	
  3643  043A                     _STOP_ENGINE:	
  3644                           	opt stack 2
  3645                           ; Regs used in _STOP_ENGINE: [wreg+status,2+status,0]
  3646                           	line	16
  3647                           	
  3648  043A                     i1l30002465:	
  3649                           ;engine_modul.c: 16: CCP1CON = 0x00;
  3650  043A  1003               	clrc
  3651  043B  3000               	movlw	0
  3652  043C  1803               	btfsc	status,0
  3653  043D  3001               	movlw	1
  3654  043E  1283               	bcf	status, 5	;RP0=0, select bank0
  3655  043F  1303               	bcf	status, 6	;RP1=0, select bank0
  3656  0440  0097               	movwf	(23)	;volatile
  3657                           	line	17
  3658                           ;engine_modul.c: 17: CCP2CON = 0x00;
  3659  0441  1003               	clrc
  3660  0442  3000               	movlw	0
  3661  0443  1803               	btfsc	status,0
  3662  0444  3001               	movlw	1
  3663  0445  009D               	movwf	(29)	;volatile
  3664                           	
  3665  0446                     i1l30002466:	
  3666                           	line	18
  3667                           ;engine_modul.c: 18: TMR2ON = 0;
  3668  0446  1112               	bcf	(146/8),(146)&7
  3669                           	
  3670  0447                     i1l35:	
  3671  0447  0008               	return
  3672                           	opt stack 0
  3673                           GLOBAL	__end_of_STOP_ENGINE
  3674  0448                     	__end_of_STOP_ENGINE:
  3675                           ; =============== function _STOP_ENGINE ends ============
  3676                           
  3677                           psect	text193,local,class=CODE,delta=2
  3678                           global __ptext193
  3679  0448                     __ptext193:
  3680                           	line	19
  3681                           	signat	_STOP_ENGINE,88
  3682                           	global	_START_ENGINE
  3683                           
  3684                           ; *************** function _START_ENGINE *****************
  3685                           ; Defined at:
  3686                           ;		line 21 in file "engine_modul.c"
  3687                           ; Parameters:    Size  Location     Type
  3688                           ;		None
  3689                           ; Auto vars:     Size  Location     Type
  3690                           ;		None
  3691                           ; Return value:  Size  Location     Type
  3692                           ;		None               void
  3693                           ; Registers used:
  3694                           ;		wreg
  3695                           ; Tracked objects:
  3696                           ;		On entry : 0/0
  3697                           ;		On exit  : 0/0
  3698                           ;		Unchanged: 0/0
  3699                           ; Data sizes:     COMMON   BANK0   BANK1   BANK3   BANK2
  3700                           ;      Locals:         0       0       0       0       0
  3701                           ;      Temp:     0
  3702                           ;      Total:    0
  3703                           ; This function calls:
  3704                           ;		Nothing
  3705                           ; This function is called by:
  3706                           ;		_ENGINE_UPDATE
  3707                           ; This function uses a non-reentrant model
  3708                           ; 
  3709                           psect	text193
  3710                           	file	"engine_modul.c"
  3711                           	line	21
  3712                           	global	__size_of_START_ENGINE
  3713  000A                     	__size_of_START_ENGINE	equ	__end_of_START_ENGINE-_START_ENGINE
  3714                           ;engine_modul.c: 21: void START_ENGINE(){
  3715                           	
  3716  0448                     _START_ENGINE:	
  3717                           	opt stack 2
  3718                           ; Regs used in _START_ENGINE: [wreg]
  3719                           	line	24
  3720                           	
  3721  0448                     i1l30002461:	
  3722                           ;engine_modul.c: 24: PR2 = 0xff;
  3723  0448  30FF               	movlw	(0FFh)
  3724  0449  1683               	bsf	status, 5	;RP0=1, select bank1
  3725  044A  1303               	bcf	status, 6	;RP1=0, select bank1
  3726  044B  0092               	movwf	(146)^080h	;volatile
  3727                           	
  3728  044C                     i1l30002462:	
  3729                           	line	36
  3730                           ;engine_modul.c: 36: T2CKPS1 = 1;
  3731  044C  1283               	bcf	status, 5	;RP0=0, select bank0
  3732  044D  1303               	bcf	status, 6	;RP1=0, select bank0
  3733  044E  1492               	bsf	(145/8),(145)&7
  3734                           	
  3735  044F                     i1l30002463:	
  3736                           	line	37
  3737                           ;engine_modul.c: 37: T2CKPS0 = 1;
  3738  044F  1412               	bsf	(144/8),(144)&7
  3739                           	
  3740  0450                     i1l30002464:	
  3741                           	line	39
  3742                           ;engine_modul.c: 39: TMR2ON = 1;
  3743  0450  1512               	bsf	(146/8),(146)&7
  3744                           	
  3745  0451                     i1l36:	
  3746  0451  0008               	return
  3747                           	opt stack 0
  3748                           GLOBAL	__end_of_START_ENGINE
  3749  0452                     	__end_of_START_ENGINE:
  3750                           ; =============== function _START_ENGINE ends ============
  3751                           
  3752                           psect	text194,local,class=CODE,delta=2
  3753                           global __ptext194
  3754  045C                     __ptext194:
  3755                           	line	40
  3756                           	signat	_START_ENGINE,88
  3757                           	global	btemp
  3758  007E                     	btemp set 07Eh


HI-TECH Software PICC Macro Assembler V9.70 build 5239 
Symbol Table                                                                                   Mon Oct 27 21:57:27 2014

       ENGINE_UPDATE@RM_speed 0033                             l5 042B                             l6 0426  
                           l8 042A     __end_of_BLUETOOTH_RESTART 043A                            l21 03F5  
                          _DA 04A5                            l22 03EA                            l30 0283  
                          _BF 04A0                            _DC 0019                            l24 03EE  
                          l32 0287                            l41 03A9                            l26 0299  
                          l34 03DF                            l42 0399                            l27 027E  
                          l44 039D                            l29 0282                            l70 02D2  
                          l72 041B                            l73 0250                            l84 0233  
                          l78 020C                            _PD 001B                            _RD 0C60  
                          _UA 04A1                            _TO 001C                            _RW 04A2  
                          _WR 0C61                _BLUETOOTH_INIT 03C9                  _START_ENGINE 0448  
                          fsr 0004                    _OLD_LM_DIR 0071                   __pbssCOMMON 0070  
             ?_BLUETOOTH_INIT 0020               __size_of___wmul 002B           _RIGHT_ENGINE_UPDATE 0301  
                  _OLD_RM_DIR 0072                           _CM0 04E0                           _CM1 04E1  
                         _CM2 04E2                           _CKE 04A6                           _IBF 044F  
                         _CIS 04E3                           _CKP 00A4                           _GIE 005F  
                         _BOR 0470                           _RA0 0028                           _RA1 0029  
                         _RB0 0030                           _RA2 002A                           _RB1 0031  
                         _RA3 002B                           _RC0 0038                           _RB2 0032  
                         _RA4 002C                           _RC1 0039                           _RB3 0033  
                         _RA5 002D                           _RD0 0040                           _RC2 003A  
                         _RB4 0034                           _RD1 0041                           _RC3 003B  
                         _RB5 0035                           _RE0 0048                           _RD2 0042  
                         _RC4 003C                           _RB6 0036                           _RE1 0049  
                         _RD3 0043                           _RC5 003D                           _RB7 0037  
                         _RE2 004A                           _RD4 0044                           _RC6 003E  
                         _RD5 0045                           _RC7 003F                           _OBF 044E  
                         _RD6 0046                           _RD7 0047                           _FSR 0004  
                         _PCL 0002                           _PS0 0408                           _PR2 0092  
                         _PS1 0409                           _PS2 040A                           _PEN 048A  
                         _RP0 001D                           _IRP 001F                           _RP1 001E  
                         _SEN 0488                           _PSA 040B                           u930 03EE  
                         u931 03ED                           u940 0282                           u941 0281  
                         u950 0287                           u951 0286                 _beforeButtons 0046  
                         u960 0144                           _POR 0471                           _RX9 00C6  
                         u970 0156                           u980 039D                           u981 039C  
                         u990 042A                           _SMP 04A7                           u991 0429  
                         _TX9 04C6          __end_of_START_ENGINE 0452                   _ANALOG_READ 0386  
            ??_BLUETOOTH_INIT 0076                           _isr 032F                           fsr0 0004  
                         indf 0000           __end_of_ANALOG_READ 03AA                 ??_STOP_ENGINE 002E  
  __end_of_LEFT_ENGINE_UPDATE 0301             _DELAY_TIMER1_50mS 041C             _DELAY_TIMER1_15uS 03E0  
       read_data@prijata_data 00AD      SENDData@UPDATE_VOLTMETER 0026                          _ADIE 0466  
                        _ADIF 0066                          _ADFM 04FF                          ?_isr 003F  
                        _ADGO 00FA                          _ADON 00F8                          _CHS0 00FB  
                        _CHS1 00FC                          _CHS2 00FD                          _EEIE 046C  
                        _EEIF 006C                          _GCEN 048F                          _CMIE 046E  
                        _CMIF 006E                          _BRGH 04C2                          _T0IE 005D  
                        u1000 0212                          _T0IF 005A                          _CREN 00C4  
                _L_MOTOR_BACK 0055                          u1001 0211                          _T0CS 040D  
                        u1010 022D                          _FERR 00C2                          u1011 022C  
                        u1020 0239                          u1021 0238                          u1030 0250  
                        u1031 024F                          u1015 0229                          u1040 02A2  
                        u1041 02A1                          u1050 02A7                          u1035 024C  
                        u1051 02A6                          u1060 02AC                          _IBOV 044D  
                        _CVR0 04E8                          u1061 02AB                          _CVR1 04E9  
                        _CVR2 04EA                          _CVR3 04EB                          u1075 0413  
                        _T0SE 040C                          _CSRC 04C7                          _INDF 0000  
                        _PIE1 008C                          _PIE2 008D                          _CVRR 04ED  
              ?_ENGINE_UPDATE 0030                          _PEIE 005E   __end_of_RIGHT_ENGINE_UPDATE 032F  
                        i1l21 040B                          _INTE 005C                          i1l22 0400  
                        _INTF 0059                          _RBIE 005B                          i1l24 0404  
                        _RBIF 0058                          i1l33 0439                          i1l35 0447  
                        _RCIE 0465                          i1l36 0451                          i1l52 0132  
                        _RCEN 048B                          _RCIF 0065                          i1l37 0300  
                        i1l38 032E                          i1l62 034E                          i1l39 0203  
                        _PCON 008E                          _PIR1 000C                          _PIR2 000D  
                        i1l96 0385                          _OERR 00C1                          _RBPU 040F  
                __pidataBANK0 045A                          _RX9D 00C0                          _TMR0 0001  
                        _TMR2 0011                          _WCOL 00A7                          _SPEN 00C7  
                        _RSEN 0489                          _TX9D 04C0                          _SREN 00C5  
                _L_MOTOR_FORW 0070                          _TRMT 04C1                          _STOP 04A4  
                        _TXIE 0464                          _ZERO 001A                          _WREN 0C62  
                        _TXEN 04C5                          _TXIF 0064                          _SYNC 04C4  
  __size_of_DELAY_TIMER1_50mS 0010    __size_of_DELAY_TIMER1_15uS 0016               ??_ENGINE_UPDATE 002E  
               ??_odesliData1 0076                          _main 0133                          btemp 007E  
      __end_of_BLUETOOTH_INIT 03E0                  ?_ANALOG_READ 0020                          start 0012  
                    _init_con 0047           ENGINE_UPDATE@LM_dir 0032             interrupt_function 0004  
           prepareButtons@BTL 0020             prepareButtons@BTR 0021                _GET_SONAR_DATA 0251  
         start_initialization 03AA            ?_DELAY_TIMER1_50mS 0020            ?_DELAY_TIMER1_15uS 0020  
         ENGINE_UPDATE@RM_dir 0035                  _OLD_LM_SPEED 003F                      clear_ram 0452  
        __size_of_ANALOG_READ 0024               ?_GET_SONAR_DATA 0020      RIGHT_ENGINE_UPDATE@speed 00A0  
            __end_of_SENDData 02D3                       ?___wmul 0030                         ??_isr 003B  
                    ??___wmul 002E              ??_GET_SONAR_DATA 0076                  _OLD_RM_SPEED 0041  
                     _CCP1CON 0017                       _CCP2CON 001D                 ?_START_ENGINE 002E  
__size_of_RIGHT_ENGINE_UPDATE 002E                       _ACKSTAT 048E                ___wmul@product 002E  
         i1_DELAY_TIMER1_15uS 03F6                      _protokol 0048                         _C1INV 04E4  
                       _C2INV 04E5                         _C1OUT 04E6                         _C2OUT 04E7  
                       _ADCS0 00FE                         _ADCS1 00FF                         _ADCS2 04FE  
                       _ADDEN 00C3                         ?_main 002A                      main@argc 002A  
                       _ACKEN 048C                         _ACKDT 048D                      main@argv 002C  
                   __ptext180 0251                     __ptext181 0204                         _BCLIE 046B  
                   __ptext190 02D3                     __ptext182 03E0                         _BCLIF 006B  
                   __ptext191 01A9                     __ptext183 041C                     __ptext192 043A  
                   __ptext184 032F                     __ptext176 029A                         _CCP1X 00BD  
                   __ptext193 0448                     __ptext185 042C                     __ptext177 0386  
                       _CCP1Y 00BC                     __ptext194 045C                     __ptext186 0015  
                   __ptext178 040C                         _CCP2X 00ED                     __ptext187 0301  
                   __ptext179 03C9                         _CCP2Y 00EC                     __ptext188 03F6  
                   __ptext189 035B                         _EEADR 010D                         _CARRY 0018  
        ??_LEFT_ENGINE_UPDATE 0036                         _EEPGD 0C67                         _CMCON 009C  
                       _T1CON 0010             read_data@dir_1796 00A7                         _T2CON 0012  
                     _T1CKPS0 0084                       _T1CKPS1 0085                         _PCFG0 04F8  
                       _PCFG1 04F9                         _PCFG2 04FA                         _PCFG3 04FB  
                     _T2CKPS0 0090                       _T2CKPS1 0091                         _CVREN 04EF  
                       i1l100 036B                         _CVROE 04EE                         _RCREG 001A  
                       _RCSTA 0018                         _TMR1H 000F                         _TMR1L 000E  
                       _SPBRG 0099                         _PORTA 0005                         _PORTB 0006  
                     _T1OSCEN 0083                         _PORTC 0007                         _PORTD 0008  
                       _PORTE 0009                         _PSPIE 0467                         _PSPIF 0067  
                       _SONAR 004D                         _START 04A3                         _SSPM0 00A0  
                       _SSPM1 00A1                         _SSPM2 00A2                         _SSPM3 00A3  
              _prepareButtons 040C                         _TRISA 0085                         _TRISB 0086  
                       _TRISC 0087                         _TRISD 0088                         _SSPIE 0463  
                       _TRISE 0089                         _SSPIF 0063                         _SSPEN 00A5  
                       _SSPOV 00A6                         _WRERR 0C63        __size_of_ENGINE_UPDATE 005B  
                       _TXREG 0019                         _TXSTA 0098               ?_prepareButtons 0021  
            _UPDATE_VOLTMETER 0074          SENDData@UPDATE_SONAR 0024                __pcstackCOMMON 0076  
       __size_of_START_ENGINE 000A              ??_prepareButtons 0076                       _PSPMODE 044C  
           _BLUETOOTH_RESTART 042C                       _SSPCON2 0091        __end_of_GET_SONAR_DATA 029A  
                       _sonar 0053                       _VOLTAGE 004F              odesliData1@index 0021  
 __end_ofi1_DELAY_TIMER1_15uS 040C                       _SSPSTAT 0094                       _TOUTPS0 0093  
                     _TOUTPS1 0094                       _TOUTPS2 0095                       _TOUTPS3 0096  
                       pclath 000A       __size_of_BLUETOOTH_INIT 0017                      intlevel1 0004  
                       status 0003                     _read_data 0015             __end_of_read_data 0133  
  __size_of_BLUETOOTH_RESTART 000E                _read_data$1794 00AB                _read_data$1797 00A9  
           ___wmul@multiplier 0030                 ??_ANALOG_READ 0076        SENDData@UPDATE_BUTTONS 0028  
                  ?_read_data 003B           ??_DELAY_TIMER1_50mS 0076           ??_DELAY_TIMER1_15uS 0076  
      __end_of_prepareButtons 041C                 __size_of_main 0076                    __pbssBANK0 003F  
            SENDData@BTSValue 0029                      l30002400 02AD                      l30002401 02C6  
                    l30002402 02CA                      l30002403 040F                      l30002405 03C9  
                    l30002406 03D6                      l30002407 03DA                      l30002360 026C  
                    l30002408 03DB                      l30002353 03E0                      l30002361 026F  
                    l30002409 03DE                      l30002354 03E6                      l30002362 0276  
                    l30002370 013B                      l30002355 03E9                      l30002363 027B  
                    l30002371 0140                      l30002364 027D                      l30002356 0251  
                    l30002380 0386                      l30002372 0144                      l30002365 028B  
                    l30002357 0257                      l30002381 038E                      l30002373 0152  
                    l30002390 0212                      l30002366 0293                      l30002358 025C  
                    l30002382 0391                      l30002374 0156                      l30002391 021A  
                    l30002367 0298                      l30002359 0264                      l30002383 0396  
                    l30002375 0164                      l30002392 0220                      l30002384 039E  
                    l30002376 0179                      l30002393 022D                      l30002377 0197  
                    l30002369 0133                      l30002386 041C                      l30002378 019C  
                    l30002387 0422                      l30002395 0239                      l30002379 01A1  
                    l30002388 0425                      l30002396 029D                      l30002389 0207  
                    l30002397 02A2                      l30002398 02A7          odesliData1@delkaPole 0023  
          ?_BLUETOOTH_RESTART 002E                   ??_read_data 0038  __size_ofi1_DELAY_TIMER1_15uS 0016  
              read_data@speed 00A3            _LEFT_ENGINE_UPDATE 02D3          ?_RIGHT_ENGINE_UPDATE 00A0  
                      ??_main 0078         ??_RIGHT_ENGINE_UPDATE 0036                    __pmaintext 0133  
                  __pintentry 0004                  read_data@dir 00A8       __size_of_GET_SONAR_DATA 0049  
                      _ADCON0 001F                        _ADCON1 009F                        _CCP1M0 00B8  
                      _CCP1M1 00B9                        _CCP1M2 00BA                        _CCP1M3 00BB  
                      _CCP2M0 00E8                   i1l500001720 0089                        _CCP2M1 00E9  
                 i1l500001721 00F3                        _CCP2M2 00EA                        _CCP2M3 00EB  
                      _CCP1IE 0462                        _CCP1IF 0062                        _CCP2IE 0468  
                      _CCP2IF 0068                __end_of___wmul 0386                        _ADRESH 001E  
                      _EEADRH 010F                        _ADRESL 009E                        _EEADRL 010D  
                      _EEDATA 010C                        _CCPR1H 0016                        _EEDATH 010E  
                      _CCPR2H 001C                        _CCPR1L 0015                        _CCPR2L 001B  
                      _EECON1 018C                        _EECON2 018D                 _ENGINE_UPDATE 01A9  
                __end_of_main 01A9                     _VOLTMETER 0051                        _GODONE 00FA  
        end_of_initialization 03C5                        u110_20 002F                        u110_21 002B  
                      _CVRCON 009D                        u111_24 0032                        u120_25 00FA  
                      u112_25 0039                        u121_20 0333                        u121_21 0332  
                      u113_25 0048                        u122_20 0337                        u122_21 0336  
                      u130_24 01CE                        u114_25 0057                        u115_20 0067  
                      u123_20 033B                        u115_21 0066                        u123_21 033A  
                      _T1SYNC 0082                        u131_25 01D3                        u132_20 01E3  
                      u124_20 0365                        u116_20 007A                        u108_20 001E  
                      u132_21 01DF                        u124_21 0364                        u116_21 0079  
                      u108_21 001D                        u133_24 01E6                        u125_25 036C  
                      u117_25 0090                        u109_25 0023                        u134_20 01ED  
                      u118_20 00D1                        u134_21 01E9                        u118_21 00D0  
                      _INTEDG 040E                        _PCLATH 000A                        u126_25 0373  
                      u127_20 037F                        u119_20 00E4                        u127_21 037E  
                      u119_21 00E3                        u135_24 01F0                        u136_20 01F7  
                      u136_21 01F3                        u128_25 01BB                        u129_20 01CB  
                      _INTCON 000B                        u129_21 01C7                        u137_24 01FA  
                      u138_20 0404                        u138_21 0403                 __pcstackBANK0 0020  
               __pcstackBANK1 00A0   __size_of_LEFT_ENGINE_UPDATE 002E                        _TMR0IE 005D  
                      _TMR0IF 005A                        _TMR1IE 0460                        _TMR1IF 0060  
                      _TMR1CS 0081                        _TMR2IE 0461                        _TMR2IF 0061  
                      _OPTION 0081                        _TMR1ON 0080                        _TMR2ON 0092  
                      _SSPADD 0093                        _TRISA0 0428                        _TRISA1 0429  
                      _TRISB0 0430                        _TRISA2 042A                        _TRISB1 0431  
                      _TRISA3 042B                        _TRISC0 0438                        _TRISB2 0432  
                      _TRISA4 042C                        _TRISC1 0439                        _TRISB3 0433  
                      _TRISA5 042D                        _TRISD0 0440                        _TRISC2 043A  
                      _TRISB4 0434                        _TRISD1 0441                        _TRISC3 043B  
                      _TRISB5 0435                        _TRISE0 0448                        _TRISD2 0442  
                      _TRISC4 043C                        _TRISB6 0436                        _TRISE1 0449  
                      _TRISD3 0443                        _TRISC5 043D                        _TRISB7 0437  
                      _TRISE2 044A                        _TRISD4 0444                        _TRISC6 043E  
                      _TRISD5 0445                        _TRISC7 043F                        _TRISD6 0446  
                      _TRISD7 0447                        _STATUS 0003                        _SSPCON 0014  
                      _SSPBUF 0013               odesliData1@pole 0020                   _STOP_ENGINE 043A  
   __end_of_DELAY_TIMER1_50mS 042C     __end_of_DELAY_TIMER1_15uS 03F6       __size_of_prepareButtons 0010  
       __end_of_ENGINE_UPDATE 0204            __size_of_read_data 011E           __end_of_STOP_ENGINE 0448  
                __size_of_isr 002C                      _SENDData 029A                        ___wmul 035B  
                   ?_SENDData 0025           ??_BLUETOOTH_RESTART 002E       LEFT_ENGINE_UPDATE@speed 00A0  
          _beforeButtonStates 0045                   _odesliData1 0204            _currenButtonStates 0075  
                  i1l30002410 0301                    i1l30002411 030F                    i1l30002412 0313  
                  i1l30002420 008B                    i1l30002421 00B5                    i1l30002413 0018  
                  i1l30002422 00C8                    i1l30002414 001E                    i1l30002430 0337  
                  i1l30002423 00D1                    i1l30002431 033B                    i1l30002440 0365  
                  i1l30002424 00E0                    i1l30002416 0060                    i1l30002432 033F  
                  i1l30002441 0372                    i1l30002425 00E4                    i1l30002417 0067  
                  i1l30002433 0345                    i1l30002450 01C3                    i1l30002442 037F  
                  i1l30002426 00F5                    i1l30002418 0076                    i1l30002434 0349  
              ??_START_ENGINE 002E        RIGHT_ENGINE_UPDATE@dir 00A2                    i1l30002451 01C4  
                  i1l30002435 02D3                    i1l30002427 011F                    i1l30002419 007A  
                  i1l30002460 01FD                    i1l30002452 01CE                    i1l30002444 01A9  
                  i1l30002436 02E1                    i1l30002428 032F                    i1l30002461 0448  
                  i1l30002453 01DB                    i1l30002445 01AE                    i1l30002437 02E5  
                  i1l30002429 0333                    i1l30002462 044C                    i1l30002454 01DC  
                  i1l30002446 01B1                    i1l30002438 035B                    i1l30002470 0438  
                  i1l30002463 044F                    i1l30002455 01E6                    i1l30002447 01B2  
                  i1l30002439 0361                    i1l30002471 03F6                    i1l30002464 0450  
                  i1l30002456 01F0                    i1l30002448 01B3                    i1l30002472 03FC  
                  i1l30002465 043A                    i1l30002457 01FA                    i1l30002449 01B4  
                  i1l30002473 03FF                    i1l30002466 0446                    i1l30002458 01FB  
                  i1l30002459 01FC                    i1l30002467 042C                    i1l30002468 0430  
                  i1l30002469 0435                    ??_SENDData 0077                  _UPDATE_COUNT 0044  
         ?_LEFT_ENGINE_UPDATE 00A0          ?i1_DELAY_TIMER1_15uS 002E           __end_of_odesliData1 0251  
                _UPDATE_SONAR 0073                        clrloop 0453                   __end_of_isr 035B  
             isr@prijata_data 00AF         ??i1_DELAY_TIMER1_15uS 002E                  ?_STOP_ENGINE 002E  
                      saved_w 007F           ___wmul@multiplicand 0032          __size_of_STOP_ENGINE 000E  
                SENDData@SONO 0025                  SENDData@VOLT 0027             __size_of_SENDData 0039  
                ?_odesliData1 0023                  _R_MOTOR_BACK 0043         LEFT_ENGINE_UPDATE@dir 00A2  
                _R_MOTOR_FORW 0056         ENGINE_UPDATE@LM_speed 0030          __size_of_odesliData1 004D  
         read_data@speed_1798 00A5                   __pdataBANK0 0055  
